
0xnull009:     file format elf64-x86-64


Disassembly of section .init:

0000000000001000 <_init>:
    1000:	f3 0f 1e fa          	endbr64 
    1004:	48 83 ec 08          	sub    rsp,0x8
    1008:	48 8b 05 d9 9f 00 00 	mov    rax,QWORD PTR [rip+0x9fd9]        # afe8 <__gmon_start__>
    100f:	48 85 c0             	test   rax,rax
    1012:	74 02                	je     1016 <_init+0x16>
    1014:	ff d0                	call   rax
    1016:	48 83 c4 08          	add    rsp,0x8
    101a:	c3                   	ret    

Disassembly of section .plt:

0000000000001020 <.plt>:
    1020:	ff 35 22 9f 00 00    	push   QWORD PTR [rip+0x9f22]        # af48 <_GLOBAL_OFFSET_TABLE_+0x8>
    1026:	f2 ff 25 23 9f 00 00 	bnd jmp QWORD PTR [rip+0x9f23]        # af50 <_GLOBAL_OFFSET_TABLE_+0x10>
    102d:	0f 1f 00             	nop    DWORD PTR [rax]
    1030:	f3 0f 1e fa          	endbr64 
    1034:	68 00 00 00 00       	push   0x0
    1039:	f2 e9 e1 ff ff ff    	bnd jmp 1020 <.plt>
    103f:	90                   	nop
    1040:	f3 0f 1e fa          	endbr64 
    1044:	68 01 00 00 00       	push   0x1
    1049:	f2 e9 d1 ff ff ff    	bnd jmp 1020 <.plt>
    104f:	90                   	nop
    1050:	f3 0f 1e fa          	endbr64 
    1054:	68 02 00 00 00       	push   0x2
    1059:	f2 e9 c1 ff ff ff    	bnd jmp 1020 <.plt>
    105f:	90                   	nop
    1060:	f3 0f 1e fa          	endbr64 
    1064:	68 03 00 00 00       	push   0x3
    1069:	f2 e9 b1 ff ff ff    	bnd jmp 1020 <.plt>
    106f:	90                   	nop
    1070:	f3 0f 1e fa          	endbr64 
    1074:	68 04 00 00 00       	push   0x4
    1079:	f2 e9 a1 ff ff ff    	bnd jmp 1020 <.plt>
    107f:	90                   	nop
    1080:	f3 0f 1e fa          	endbr64 
    1084:	68 05 00 00 00       	push   0x5
    1089:	f2 e9 91 ff ff ff    	bnd jmp 1020 <.plt>
    108f:	90                   	nop
    1090:	f3 0f 1e fa          	endbr64 
    1094:	68 06 00 00 00       	push   0x6
    1099:	f2 e9 81 ff ff ff    	bnd jmp 1020 <.plt>
    109f:	90                   	nop
    10a0:	f3 0f 1e fa          	endbr64 
    10a4:	68 07 00 00 00       	push   0x7
    10a9:	f2 e9 71 ff ff ff    	bnd jmp 1020 <.plt>
    10af:	90                   	nop
    10b0:	f3 0f 1e fa          	endbr64 
    10b4:	68 08 00 00 00       	push   0x8
    10b9:	f2 e9 61 ff ff ff    	bnd jmp 1020 <.plt>
    10bf:	90                   	nop
    10c0:	f3 0f 1e fa          	endbr64 
    10c4:	68 09 00 00 00       	push   0x9
    10c9:	f2 e9 51 ff ff ff    	bnd jmp 1020 <.plt>
    10cf:	90                   	nop
    10d0:	f3 0f 1e fa          	endbr64 
    10d4:	68 0a 00 00 00       	push   0xa
    10d9:	f2 e9 41 ff ff ff    	bnd jmp 1020 <.plt>
    10df:	90                   	nop
    10e0:	f3 0f 1e fa          	endbr64 
    10e4:	68 0b 00 00 00       	push   0xb
    10e9:	f2 e9 31 ff ff ff    	bnd jmp 1020 <.plt>
    10ef:	90                   	nop
    10f0:	f3 0f 1e fa          	endbr64 
    10f4:	68 0c 00 00 00       	push   0xc
    10f9:	f2 e9 21 ff ff ff    	bnd jmp 1020 <.plt>
    10ff:	90                   	nop
    1100:	f3 0f 1e fa          	endbr64 
    1104:	68 0d 00 00 00       	push   0xd
    1109:	f2 e9 11 ff ff ff    	bnd jmp 1020 <.plt>
    110f:	90                   	nop

Disassembly of section .plt.got:

0000000000001110 <__cxa_finalize@plt>:
    1110:	f3 0f 1e fa          	endbr64 
    1114:	f2 ff 25 ad 9e 00 00 	bnd jmp QWORD PTR [rip+0x9ead]        # afc8 <__cxa_finalize@GLIBC_2.2.5>
    111b:	0f 1f 44 00 00       	nop    DWORD PTR [rax+rax*1+0x0]

Disassembly of section .plt.sec:

0000000000001120 <printf@plt>:
    1120:	f3 0f 1e fa          	endbr64 
    1124:	f2 ff 25 2d 9e 00 00 	bnd jmp QWORD PTR [rip+0x9e2d]        # af58 <printf@GLIBC_2.2.5>
    112b:	0f 1f 44 00 00       	nop    DWORD PTR [rax+rax*1+0x0]

0000000000001130 <_ZNKSt7__cxx1112basic_stringIcSt11char_traitsIcESaIcEE7compareEPKc@plt>:
    1130:	f3 0f 1e fa          	endbr64 
    1134:	f2 ff 25 25 9e 00 00 	bnd jmp QWORD PTR [rip+0x9e25]        # af60 <_ZNKSt7__cxx1112basic_stringIcSt11char_traitsIcESaIcEE7compareEPKc@GLIBCXX_3.4.21>
    113b:	0f 1f 44 00 00       	nop    DWORD PTR [rax+rax*1+0x0]

0000000000001140 <_ZNSt7__cxx1112basic_stringIcSt11char_traitsIcESaIcEED1Ev@plt>:
    1140:	f3 0f 1e fa          	endbr64 
    1144:	f2 ff 25 1d 9e 00 00 	bnd jmp QWORD PTR [rip+0x9e1d]        # af68 <_ZNSt7__cxx1112basic_stringIcSt11char_traitsIcESaIcEED1Ev@GLIBCXX_3.4.21>
    114b:	0f 1f 44 00 00       	nop    DWORD PTR [rax+rax*1+0x0]

0000000000001150 <_ZNKSt7__cxx1112basic_stringIcSt11char_traitsIcESaIcEE4sizeEv@plt>:
    1150:	f3 0f 1e fa          	endbr64 
    1154:	f2 ff 25 15 9e 00 00 	bnd jmp QWORD PTR [rip+0x9e15]        # af70 <_ZNKSt7__cxx1112basic_stringIcSt11char_traitsIcESaIcEE4sizeEv@GLIBCXX_3.4.21>
    115b:	0f 1f 44 00 00       	nop    DWORD PTR [rax+rax*1+0x0]

0000000000001160 <__cxa_atexit@plt>:
    1160:	f3 0f 1e fa          	endbr64 
    1164:	f2 ff 25 0d 9e 00 00 	bnd jmp QWORD PTR [rip+0x9e0d]        # af78 <__cxa_atexit@GLIBC_2.2.5>
    116b:	0f 1f 44 00 00       	nop    DWORD PTR [rax+rax*1+0x0]

0000000000001170 <_ZStlsISt11char_traitsIcEERSt13basic_ostreamIcT_ES5_PKc@plt>:
    1170:	f3 0f 1e fa          	endbr64 
    1174:	f2 ff 25 05 9e 00 00 	bnd jmp QWORD PTR [rip+0x9e05]        # af80 <_ZStlsISt11char_traitsIcEERSt13basic_ostreamIcT_ES5_PKc@GLIBCXX_3.4>
    117b:	0f 1f 44 00 00       	nop    DWORD PTR [rax+rax*1+0x0]

0000000000001180 <_ZNSolsEPFRSoS_E@plt>:
    1180:	f3 0f 1e fa          	endbr64 
    1184:	f2 ff 25 fd 9d 00 00 	bnd jmp QWORD PTR [rip+0x9dfd]        # af88 <_ZNSolsEPFRSoS_E@GLIBCXX_3.4>
    118b:	0f 1f 44 00 00       	nop    DWORD PTR [rax+rax*1+0x0]

0000000000001190 <_ZNSaIcED1Ev@plt>:
    1190:	f3 0f 1e fa          	endbr64 
    1194:	f2 ff 25 f5 9d 00 00 	bnd jmp QWORD PTR [rip+0x9df5]        # af90 <_ZNSaIcED1Ev@GLIBCXX_3.4>
    119b:	0f 1f 44 00 00       	nop    DWORD PTR [rax+rax*1+0x0]

00000000000011a0 <__stack_chk_fail@plt>:
    11a0:	f3 0f 1e fa          	endbr64 
    11a4:	f2 ff 25 ed 9d 00 00 	bnd jmp QWORD PTR [rip+0x9ded]        # af98 <__stack_chk_fail@GLIBC_2.4>
    11ab:	0f 1f 44 00 00       	nop    DWORD PTR [rax+rax*1+0x0]

00000000000011b0 <_ZNSt7__cxx1112basic_stringIcSt11char_traitsIcESaIcEEC1EPKcRKS3_@plt>:
    11b0:	f3 0f 1e fa          	endbr64 
    11b4:	f2 ff 25 e5 9d 00 00 	bnd jmp QWORD PTR [rip+0x9de5]        # afa0 <_ZNSt7__cxx1112basic_stringIcSt11char_traitsIcESaIcEEC1EPKcRKS3_@GLIBCXX_3.4.21>
    11bb:	0f 1f 44 00 00       	nop    DWORD PTR [rax+rax*1+0x0]

00000000000011c0 <_ZNSt8ios_base4InitC1Ev@plt>:
    11c0:	f3 0f 1e fa          	endbr64 
    11c4:	f2 ff 25 dd 9d 00 00 	bnd jmp QWORD PTR [rip+0x9ddd]        # afa8 <_ZNSt8ios_base4InitC1Ev@GLIBCXX_3.4>
    11cb:	0f 1f 44 00 00       	nop    DWORD PTR [rax+rax*1+0x0]

00000000000011d0 <_Unwind_Resume@plt>:
    11d0:	f3 0f 1e fa          	endbr64 
    11d4:	f2 ff 25 d5 9d 00 00 	bnd jmp QWORD PTR [rip+0x9dd5]        # afb0 <_Unwind_Resume@GCC_3.0>
    11db:	0f 1f 44 00 00       	nop    DWORD PTR [rax+rax*1+0x0]

00000000000011e0 <_ZNSaIcEC1Ev@plt>:
    11e0:	f3 0f 1e fa          	endbr64 
    11e4:	f2 ff 25 cd 9d 00 00 	bnd jmp QWORD PTR [rip+0x9dcd]        # afb8 <_ZNSaIcEC1Ev@GLIBCXX_3.4>
    11eb:	0f 1f 44 00 00       	nop    DWORD PTR [rax+rax*1+0x0]

00000000000011f0 <_ZNSt7__cxx1112basic_stringIcSt11char_traitsIcESaIcEEixEm@plt>:
    11f0:	f3 0f 1e fa          	endbr64 
    11f4:	f2 ff 25 c5 9d 00 00 	bnd jmp QWORD PTR [rip+0x9dc5]        # afc0 <_ZNSt7__cxx1112basic_stringIcSt11char_traitsIcESaIcEEixEm@GLIBCXX_3.4.21>
    11fb:	0f 1f 44 00 00       	nop    DWORD PTR [rax+rax*1+0x0]

Disassembly of section .text:

0000000000001200 <_start>:
    1200:	f3 0f 1e fa          	endbr64 
    1204:	31 ed                	xor    ebp,ebp
    1206:	49 89 d1             	mov    r9,rdx
    1209:	5e                   	pop    rsi
    120a:	48 89 e2             	mov    rdx,rsp
    120d:	48 83 e4 f0          	and    rsp,0xfffffffffffffff0
    1211:	50                   	push   rax
    1212:	54                   	push   rsp
    1213:	4c 8d 05 d6 71 00 00 	lea    r8,[rip+0x71d6]        # 83f0 <__libc_csu_fini>
    121a:	48 8d 0d 5f 71 00 00 	lea    rcx,[rip+0x715f]        # 8380 <__libc_csu_init>
    1221:	48 8d 3d 24 6f 00 00 	lea    rdi,[rip+0x6f24]        # 814c <main>
    1228:	ff 15 b2 9d 00 00    	call   QWORD PTR [rip+0x9db2]        # afe0 <__libc_start_main@GLIBC_2.2.5>
    122e:	f4                   	hlt    
    122f:	90                   	nop

0000000000001230 <deregister_tm_clones>:
    1230:	48 8d 3d e1 9d 00 00 	lea    rdi,[rip+0x9de1]        # b018 <__TMC_END__>
    1237:	48 8d 05 da 9d 00 00 	lea    rax,[rip+0x9dda]        # b018 <__TMC_END__>
    123e:	48 39 f8             	cmp    rax,rdi
    1241:	74 15                	je     1258 <deregister_tm_clones+0x28>
    1243:	48 8b 05 8e 9d 00 00 	mov    rax,QWORD PTR [rip+0x9d8e]        # afd8 <_ITM_deregisterTMCloneTable>
    124a:	48 85 c0             	test   rax,rax
    124d:	74 09                	je     1258 <deregister_tm_clones+0x28>
    124f:	ff e0                	jmp    rax
    1251:	0f 1f 80 00 00 00 00 	nop    DWORD PTR [rax+0x0]
    1258:	c3                   	ret    
    1259:	0f 1f 80 00 00 00 00 	nop    DWORD PTR [rax+0x0]

0000000000001260 <register_tm_clones>:
    1260:	48 8d 3d b1 9d 00 00 	lea    rdi,[rip+0x9db1]        # b018 <__TMC_END__>
    1267:	48 8d 35 aa 9d 00 00 	lea    rsi,[rip+0x9daa]        # b018 <__TMC_END__>
    126e:	48 29 fe             	sub    rsi,rdi
    1271:	48 89 f0             	mov    rax,rsi
    1274:	48 c1 ee 3f          	shr    rsi,0x3f
    1278:	48 c1 f8 03          	sar    rax,0x3
    127c:	48 01 c6             	add    rsi,rax
    127f:	48 d1 fe             	sar    rsi,1
    1282:	74 14                	je     1298 <register_tm_clones+0x38>
    1284:	48 8b 05 65 9d 00 00 	mov    rax,QWORD PTR [rip+0x9d65]        # aff0 <_ITM_registerTMCloneTable>
    128b:	48 85 c0             	test   rax,rax
    128e:	74 08                	je     1298 <register_tm_clones+0x38>
    1290:	ff e0                	jmp    rax
    1292:	66 0f 1f 44 00 00    	nop    WORD PTR [rax+rax*1+0x0]
    1298:	c3                   	ret    
    1299:	0f 1f 80 00 00 00 00 	nop    DWORD PTR [rax+0x0]

00000000000012a0 <__do_global_dtors_aux>:
    12a0:	f3 0f 1e fa          	endbr64 
    12a4:	80 3d a5 9e 00 00 00 	cmp    BYTE PTR [rip+0x9ea5],0x0        # b150 <completed.8061>
    12ab:	75 2b                	jne    12d8 <__do_global_dtors_aux+0x38>
    12ad:	55                   	push   rbp
    12ae:	48 83 3d 12 9d 00 00 	cmp    QWORD PTR [rip+0x9d12],0x0        # afc8 <__cxa_finalize@GLIBC_2.2.5>
    12b5:	00 
    12b6:	48 89 e5             	mov    rbp,rsp
    12b9:	74 0c                	je     12c7 <__do_global_dtors_aux+0x27>
    12bb:	48 8b 3d 46 9d 00 00 	mov    rdi,QWORD PTR [rip+0x9d46]        # b008 <__dso_handle>
    12c2:	e8 49 fe ff ff       	call   1110 <__cxa_finalize@plt>
    12c7:	e8 64 ff ff ff       	call   1230 <deregister_tm_clones>
    12cc:	c6 05 7d 9e 00 00 01 	mov    BYTE PTR [rip+0x9e7d],0x1        # b150 <completed.8061>
    12d3:	5d                   	pop    rbp
    12d4:	c3                   	ret    
    12d5:	0f 1f 00             	nop    DWORD PTR [rax]
    12d8:	c3                   	ret    
    12d9:	0f 1f 80 00 00 00 00 	nop    DWORD PTR [rax+0x0]

00000000000012e0 <frame_dummy>:
    12e0:	f3 0f 1e fa          	endbr64 
    12e4:	e9 77 ff ff ff       	jmp    1260 <register_tm_clones>

00000000000012e9 <_Z9ascii_artNSt7__cxx1112basic_stringIcSt11char_traitsIcESaIcEEE>:
    12e9:	f3 0f 1e fa          	endbr64 
    12ed:	55                   	push   rbp
    12ee:	48 89 e5             	mov    rbp,rsp
    12f1:	53                   	push   rbx
    12f2:	48 83 ec 68          	sub    rsp,0x68
    12f6:	48 89 7d 98          	mov    QWORD PTR [rbp-0x68],rdi
    12fa:	64 48 8b 04 25 28 00 	mov    rax,QWORD PTR fs:0x28
    1301:	00 00 
    1303:	48 89 45 e8          	mov    QWORD PTR [rbp-0x18],rax
    1307:	31 c0                	xor    eax,eax
    1309:	48 8b 45 98          	mov    rax,QWORD PTR [rbp-0x68]
    130d:	48 8d 35 f9 7c 00 00 	lea    rsi,[rip+0x7cf9]        # 900d <_ZStL19piecewise_construct+0x5>
    1314:	48 89 c7             	mov    rdi,rax
    1317:	e8 04 70 00 00       	call   8320 <_ZStneIcSt11char_traitsIcESaIcEEbRKNSt7__cxx1112basic_stringIT_T0_T1_EEPKS5_>
    131c:	84 c0                	test   al,al
    131e:	74 18                	je     1338 <_Z9ascii_artNSt7__cxx1112basic_stringIcSt11char_traitsIcESaIcEEE+0x4f>
    1320:	48 8d 35 f1 7c 00 00 	lea    rsi,[rip+0x7cf1]        # 9018 <_ZStL19piecewise_construct+0x10>
    1327:	48 8d 3d 12 9d 00 00 	lea    rdi,[rip+0x9d12]        # b040 <_ZSt4cout@@GLIBCXX_3.4>
    132e:	e8 3d fe ff ff       	call   1170 <_ZStlsISt11char_traitsIcEERSt13basic_ostreamIcT_ES5_PKc@plt>
    1333:	e9 f9 6d 00 00       	jmp    8131 <_Z9ascii_artNSt7__cxx1112basic_stringIcSt11char_traitsIcESaIcEEE+0x6e48>
    1338:	48 8d 45 a7          	lea    rax,[rbp-0x59]
    133c:	48 89 c7             	mov    rdi,rax
    133f:	e8 9c fe ff ff       	call   11e0 <_ZNSaIcEC1Ev@plt>
    1344:	48 8d 55 a7          	lea    rdx,[rbp-0x59]
    1348:	48 8d 45 c0          	lea    rax,[rbp-0x40]
    134c:	48 8d 35 05 7d 00 00 	lea    rsi,[rip+0x7d05]        # 9058 <_ZStL19piecewise_construct+0x50>
    1353:	48 89 c7             	mov    rdi,rax
    1356:	e8 55 fe ff ff       	call   11b0 <_ZNSt7__cxx1112basic_stringIcSt11char_traitsIcESaIcEEC1EPKcRKS3_@plt>
    135b:	48 8d 45 a7          	lea    rax,[rbp-0x59]
    135f:	48 89 c7             	mov    rdi,rax
    1362:	e8 29 fe ff ff       	call   1190 <_ZNSaIcED1Ev@plt>
    1367:	c7 45 a8 00 00 00 00 	mov    DWORD PTR [rbp-0x58],0x0
    136e:	8b 45 a8             	mov    eax,DWORD PTR [rbp-0x58]
    1371:	48 63 d8             	movsxd rbx,eax
    1374:	48 8d 45 c0          	lea    rax,[rbp-0x40]
    1378:	48 89 c7             	mov    rdi,rax
    137b:	e8 d0 fd ff ff       	call   1150 <_ZNKSt7__cxx1112basic_stringIcSt11char_traitsIcESaIcEE4sizeEv@plt>
    1380:	48 39 c3             	cmp    rbx,rax
    1383:	0f 92 c0             	setb   al
    1386:	84 c0                	test   al,al
    1388:	0f 84 03 12 00 00    	je     2591 <_Z9ascii_artNSt7__cxx1112basic_stringIcSt11char_traitsIcESaIcEEE+0x12a8>
    138e:	8b 45 a8             	mov    eax,DWORD PTR [rbp-0x58]
    1391:	48 63 d0             	movsxd rdx,eax
    1394:	48 8d 45 c0          	lea    rax,[rbp-0x40]
    1398:	48 89 d6             	mov    rsi,rdx
    139b:	48 89 c7             	mov    rdi,rax
    139e:	e8 4d fe ff ff       	call   11f0 <_ZNSt7__cxx1112basic_stringIcSt11char_traitsIcESaIcEEixEm@plt>
    13a3:	0f b6 00             	movzx  eax,BYTE PTR [rax]
    13a6:	3c 41                	cmp    al,0x41
    13a8:	74 1c                	je     13c6 <_Z9ascii_artNSt7__cxx1112basic_stringIcSt11char_traitsIcESaIcEEE+0xdd>
    13aa:	8b 45 a8             	mov    eax,DWORD PTR [rbp-0x58]
    13ad:	48 63 d0             	movsxd rdx,eax
    13b0:	48 8d 45 c0          	lea    rax,[rbp-0x40]
    13b4:	48 89 d6             	mov    rsi,rdx
    13b7:	48 89 c7             	mov    rdi,rax
    13ba:	e8 31 fe ff ff       	call   11f0 <_ZNSt7__cxx1112basic_stringIcSt11char_traitsIcESaIcEEixEm@plt>
    13bf:	0f b6 00             	movzx  eax,BYTE PTR [rax]
    13c2:	3c 61                	cmp    al,0x61
    13c4:	75 07                	jne    13cd <_Z9ascii_artNSt7__cxx1112basic_stringIcSt11char_traitsIcESaIcEEE+0xe4>
    13c6:	b8 01 00 00 00       	mov    eax,0x1
    13cb:	eb 05                	jmp    13d2 <_Z9ascii_artNSt7__cxx1112basic_stringIcSt11char_traitsIcESaIcEEE+0xe9>
    13cd:	b8 00 00 00 00       	mov    eax,0x0
    13d2:	84 c0                	test   al,al
    13d4:	74 13                	je     13e9 <_Z9ascii_artNSt7__cxx1112basic_stringIcSt11char_traitsIcESaIcEEE+0x100>
    13d6:	48 8d 35 aa 7c 00 00 	lea    rsi,[rip+0x7caa]        # 9087 <_ZStL19piecewise_construct+0x7f>
    13dd:	48 8d 3d 5c 9c 00 00 	lea    rdi,[rip+0x9c5c]        # b040 <_ZSt4cout@@GLIBCXX_3.4>
    13e4:	e8 87 fd ff ff       	call   1170 <_ZStlsISt11char_traitsIcEERSt13basic_ostreamIcT_ES5_PKc@plt>
    13e9:	8b 45 a8             	mov    eax,DWORD PTR [rbp-0x58]
    13ec:	48 63 d0             	movsxd rdx,eax
    13ef:	48 8d 45 c0          	lea    rax,[rbp-0x40]
    13f3:	48 89 d6             	mov    rsi,rdx
    13f6:	48 89 c7             	mov    rdi,rax
    13f9:	e8 f2 fd ff ff       	call   11f0 <_ZNSt7__cxx1112basic_stringIcSt11char_traitsIcESaIcEEixEm@plt>
    13fe:	0f b6 00             	movzx  eax,BYTE PTR [rax]
    1401:	3c 42                	cmp    al,0x42
    1403:	74 1c                	je     1421 <_Z9ascii_artNSt7__cxx1112basic_stringIcSt11char_traitsIcESaIcEEE+0x138>
    1405:	8b 45 a8             	mov    eax,DWORD PTR [rbp-0x58]
    1408:	48 63 d0             	movsxd rdx,eax
    140b:	48 8d 45 c0          	lea    rax,[rbp-0x40]
    140f:	48 89 d6             	mov    rsi,rdx
    1412:	48 89 c7             	mov    rdi,rax
    1415:	e8 d6 fd ff ff       	call   11f0 <_ZNSt7__cxx1112basic_stringIcSt11char_traitsIcESaIcEEixEm@plt>
    141a:	0f b6 00             	movzx  eax,BYTE PTR [rax]
    141d:	3c 62                	cmp    al,0x62
    141f:	75 07                	jne    1428 <_Z9ascii_artNSt7__cxx1112basic_stringIcSt11char_traitsIcESaIcEEE+0x13f>
    1421:	b8 01 00 00 00       	mov    eax,0x1
    1426:	eb 05                	jmp    142d <_Z9ascii_artNSt7__cxx1112basic_stringIcSt11char_traitsIcESaIcEEE+0x144>
    1428:	b8 00 00 00 00       	mov    eax,0x0
    142d:	84 c0                	test   al,al
    142f:	74 13                	je     1444 <_Z9ascii_artNSt7__cxx1112basic_stringIcSt11char_traitsIcESaIcEEE+0x15b>
    1431:	48 8d 35 58 7c 00 00 	lea    rsi,[rip+0x7c58]        # 9090 <_ZStL19piecewise_construct+0x88>
    1438:	48 8d 3d 01 9c 00 00 	lea    rdi,[rip+0x9c01]        # b040 <_ZSt4cout@@GLIBCXX_3.4>
    143f:	e8 2c fd ff ff       	call   1170 <_ZStlsISt11char_traitsIcEERSt13basic_ostreamIcT_ES5_PKc@plt>
    1444:	8b 45 a8             	mov    eax,DWORD PTR [rbp-0x58]
    1447:	48 63 d0             	movsxd rdx,eax
    144a:	48 8d 45 c0          	lea    rax,[rbp-0x40]
    144e:	48 89 d6             	mov    rsi,rdx
    1451:	48 89 c7             	mov    rdi,rax
    1454:	e8 97 fd ff ff       	call   11f0 <_ZNSt7__cxx1112basic_stringIcSt11char_traitsIcESaIcEEixEm@plt>
    1459:	0f b6 00             	movzx  eax,BYTE PTR [rax]
    145c:	3c 43                	cmp    al,0x43
    145e:	74 1c                	je     147c <_Z9ascii_artNSt7__cxx1112basic_stringIcSt11char_traitsIcESaIcEEE+0x193>
    1460:	8b 45 a8             	mov    eax,DWORD PTR [rbp-0x58]
    1463:	48 63 d0             	movsxd rdx,eax
    1466:	48 8d 45 c0          	lea    rax,[rbp-0x40]
    146a:	48 89 d6             	mov    rsi,rdx
    146d:	48 89 c7             	mov    rdi,rax
    1470:	e8 7b fd ff ff       	call   11f0 <_ZNSt7__cxx1112basic_stringIcSt11char_traitsIcESaIcEEixEm@plt>
    1475:	0f b6 00             	movzx  eax,BYTE PTR [rax]
    1478:	3c 63                	cmp    al,0x63
    147a:	75 07                	jne    1483 <_Z9ascii_artNSt7__cxx1112basic_stringIcSt11char_traitsIcESaIcEEE+0x19a>
    147c:	b8 01 00 00 00       	mov    eax,0x1
    1481:	eb 05                	jmp    1488 <_Z9ascii_artNSt7__cxx1112basic_stringIcSt11char_traitsIcESaIcEEE+0x19f>
    1483:	b8 00 00 00 00       	mov    eax,0x0
    1488:	84 c0                	test   al,al
    148a:	74 13                	je     149f <_Z9ascii_artNSt7__cxx1112basic_stringIcSt11char_traitsIcESaIcEEE+0x1b6>
    148c:	48 8d 35 fd 7b 00 00 	lea    rsi,[rip+0x7bfd]        # 9090 <_ZStL19piecewise_construct+0x88>
    1493:	48 8d 3d a6 9b 00 00 	lea    rdi,[rip+0x9ba6]        # b040 <_ZSt4cout@@GLIBCXX_3.4>
    149a:	e8 d1 fc ff ff       	call   1170 <_ZStlsISt11char_traitsIcEERSt13basic_ostreamIcT_ES5_PKc@plt>
    149f:	8b 45 a8             	mov    eax,DWORD PTR [rbp-0x58]
    14a2:	48 63 d0             	movsxd rdx,eax
    14a5:	48 8d 45 c0          	lea    rax,[rbp-0x40]
    14a9:	48 89 d6             	mov    rsi,rdx
    14ac:	48 89 c7             	mov    rdi,rax
    14af:	e8 3c fd ff ff       	call   11f0 <_ZNSt7__cxx1112basic_stringIcSt11char_traitsIcESaIcEEixEm@plt>
    14b4:	0f b6 00             	movzx  eax,BYTE PTR [rax]
    14b7:	3c 44                	cmp    al,0x44
    14b9:	74 1c                	je     14d7 <_Z9ascii_artNSt7__cxx1112basic_stringIcSt11char_traitsIcESaIcEEE+0x1ee>
    14bb:	8b 45 a8             	mov    eax,DWORD PTR [rbp-0x58]
    14be:	48 63 d0             	movsxd rdx,eax
    14c1:	48 8d 45 c0          	lea    rax,[rbp-0x40]
    14c5:	48 89 d6             	mov    rsi,rdx
    14c8:	48 89 c7             	mov    rdi,rax
    14cb:	e8 20 fd ff ff       	call   11f0 <_ZNSt7__cxx1112basic_stringIcSt11char_traitsIcESaIcEEixEm@plt>
    14d0:	0f b6 00             	movzx  eax,BYTE PTR [rax]
    14d3:	3c 64                	cmp    al,0x64
    14d5:	75 07                	jne    14de <_Z9ascii_artNSt7__cxx1112basic_stringIcSt11char_traitsIcESaIcEEE+0x1f5>
    14d7:	b8 01 00 00 00       	mov    eax,0x1
    14dc:	eb 05                	jmp    14e3 <_Z9ascii_artNSt7__cxx1112basic_stringIcSt11char_traitsIcESaIcEEE+0x1fa>
    14de:	b8 00 00 00 00       	mov    eax,0x0
    14e3:	84 c0                	test   al,al
    14e5:	74 13                	je     14fa <_Z9ascii_artNSt7__cxx1112basic_stringIcSt11char_traitsIcESaIcEEE+0x211>
    14e7:	48 8d 35 a2 7b 00 00 	lea    rsi,[rip+0x7ba2]        # 9090 <_ZStL19piecewise_construct+0x88>
    14ee:	48 8d 3d 4b 9b 00 00 	lea    rdi,[rip+0x9b4b]        # b040 <_ZSt4cout@@GLIBCXX_3.4>
    14f5:	e8 76 fc ff ff       	call   1170 <_ZStlsISt11char_traitsIcEERSt13basic_ostreamIcT_ES5_PKc@plt>
    14fa:	8b 45 a8             	mov    eax,DWORD PTR [rbp-0x58]
    14fd:	48 63 d0             	movsxd rdx,eax
    1500:	48 8d 45 c0          	lea    rax,[rbp-0x40]
    1504:	48 89 d6             	mov    rsi,rdx
    1507:	48 89 c7             	mov    rdi,rax
    150a:	e8 e1 fc ff ff       	call   11f0 <_ZNSt7__cxx1112basic_stringIcSt11char_traitsIcESaIcEEixEm@plt>
    150f:	0f b6 00             	movzx  eax,BYTE PTR [rax]
    1512:	3c 45                	cmp    al,0x45
    1514:	74 1c                	je     1532 <_Z9ascii_artNSt7__cxx1112basic_stringIcSt11char_traitsIcESaIcEEE+0x249>
    1516:	8b 45 a8             	mov    eax,DWORD PTR [rbp-0x58]
    1519:	48 63 d0             	movsxd rdx,eax
    151c:	48 8d 45 c0          	lea    rax,[rbp-0x40]
    1520:	48 89 d6             	mov    rsi,rdx
    1523:	48 89 c7             	mov    rdi,rax
    1526:	e8 c5 fc ff ff       	call   11f0 <_ZNSt7__cxx1112basic_stringIcSt11char_traitsIcESaIcEEixEm@plt>
    152b:	0f b6 00             	movzx  eax,BYTE PTR [rax]
    152e:	3c 65                	cmp    al,0x65
    1530:	75 07                	jne    1539 <_Z9ascii_artNSt7__cxx1112basic_stringIcSt11char_traitsIcESaIcEEE+0x250>
    1532:	b8 01 00 00 00       	mov    eax,0x1
    1537:	eb 05                	jmp    153e <_Z9ascii_artNSt7__cxx1112basic_stringIcSt11char_traitsIcESaIcEEE+0x255>
    1539:	b8 00 00 00 00       	mov    eax,0x0
    153e:	84 c0                	test   al,al
    1540:	74 13                	je     1555 <_Z9ascii_artNSt7__cxx1112basic_stringIcSt11char_traitsIcESaIcEEE+0x26c>
    1542:	48 8d 35 47 7b 00 00 	lea    rsi,[rip+0x7b47]        # 9090 <_ZStL19piecewise_construct+0x88>
    1549:	48 8d 3d f0 9a 00 00 	lea    rdi,[rip+0x9af0]        # b040 <_ZSt4cout@@GLIBCXX_3.4>
    1550:	e8 1b fc ff ff       	call   1170 <_ZStlsISt11char_traitsIcEERSt13basic_ostreamIcT_ES5_PKc@plt>
    1555:	8b 45 a8             	mov    eax,DWORD PTR [rbp-0x58]
    1558:	48 63 d0             	movsxd rdx,eax
    155b:	48 8d 45 c0          	lea    rax,[rbp-0x40]
    155f:	48 89 d6             	mov    rsi,rdx
    1562:	48 89 c7             	mov    rdi,rax
    1565:	e8 86 fc ff ff       	call   11f0 <_ZNSt7__cxx1112basic_stringIcSt11char_traitsIcESaIcEEixEm@plt>
    156a:	0f b6 00             	movzx  eax,BYTE PTR [rax]
    156d:	3c 46                	cmp    al,0x46
    156f:	74 1c                	je     158d <_Z9ascii_artNSt7__cxx1112basic_stringIcSt11char_traitsIcESaIcEEE+0x2a4>
    1571:	8b 45 a8             	mov    eax,DWORD PTR [rbp-0x58]
    1574:	48 63 d0             	movsxd rdx,eax
    1577:	48 8d 45 c0          	lea    rax,[rbp-0x40]
    157b:	48 89 d6             	mov    rsi,rdx
    157e:	48 89 c7             	mov    rdi,rax
    1581:	e8 6a fc ff ff       	call   11f0 <_ZNSt7__cxx1112basic_stringIcSt11char_traitsIcESaIcEEixEm@plt>
    1586:	0f b6 00             	movzx  eax,BYTE PTR [rax]
    1589:	3c 66                	cmp    al,0x66
    158b:	75 07                	jne    1594 <_Z9ascii_artNSt7__cxx1112basic_stringIcSt11char_traitsIcESaIcEEE+0x2ab>
    158d:	b8 01 00 00 00       	mov    eax,0x1
    1592:	eb 05                	jmp    1599 <_Z9ascii_artNSt7__cxx1112basic_stringIcSt11char_traitsIcESaIcEEE+0x2b0>
    1594:	b8 00 00 00 00       	mov    eax,0x0
    1599:	84 c0                	test   al,al
    159b:	74 13                	je     15b0 <_Z9ascii_artNSt7__cxx1112basic_stringIcSt11char_traitsIcESaIcEEE+0x2c7>
    159d:	48 8d 35 ec 7a 00 00 	lea    rsi,[rip+0x7aec]        # 9090 <_ZStL19piecewise_construct+0x88>
    15a4:	48 8d 3d 95 9a 00 00 	lea    rdi,[rip+0x9a95]        # b040 <_ZSt4cout@@GLIBCXX_3.4>
    15ab:	e8 c0 fb ff ff       	call   1170 <_ZStlsISt11char_traitsIcEERSt13basic_ostreamIcT_ES5_PKc@plt>
    15b0:	8b 45 a8             	mov    eax,DWORD PTR [rbp-0x58]
    15b3:	48 63 d0             	movsxd rdx,eax
    15b6:	48 8d 45 c0          	lea    rax,[rbp-0x40]
    15ba:	48 89 d6             	mov    rsi,rdx
    15bd:	48 89 c7             	mov    rdi,rax
    15c0:	e8 2b fc ff ff       	call   11f0 <_ZNSt7__cxx1112basic_stringIcSt11char_traitsIcESaIcEEixEm@plt>
    15c5:	0f b6 00             	movzx  eax,BYTE PTR [rax]
    15c8:	3c 47                	cmp    al,0x47
    15ca:	74 1c                	je     15e8 <_Z9ascii_artNSt7__cxx1112basic_stringIcSt11char_traitsIcESaIcEEE+0x2ff>
    15cc:	8b 45 a8             	mov    eax,DWORD PTR [rbp-0x58]
    15cf:	48 63 d0             	movsxd rdx,eax
    15d2:	48 8d 45 c0          	lea    rax,[rbp-0x40]
    15d6:	48 89 d6             	mov    rsi,rdx
    15d9:	48 89 c7             	mov    rdi,rax
    15dc:	e8 0f fc ff ff       	call   11f0 <_ZNSt7__cxx1112basic_stringIcSt11char_traitsIcESaIcEEixEm@plt>
    15e1:	0f b6 00             	movzx  eax,BYTE PTR [rax]
    15e4:	3c 67                	cmp    al,0x67
    15e6:	75 07                	jne    15ef <_Z9ascii_artNSt7__cxx1112basic_stringIcSt11char_traitsIcESaIcEEE+0x306>
    15e8:	b8 01 00 00 00       	mov    eax,0x1
    15ed:	eb 05                	jmp    15f4 <_Z9ascii_artNSt7__cxx1112basic_stringIcSt11char_traitsIcESaIcEEE+0x30b>
    15ef:	b8 00 00 00 00       	mov    eax,0x0
    15f4:	84 c0                	test   al,al
    15f6:	74 13                	je     160b <_Z9ascii_artNSt7__cxx1112basic_stringIcSt11char_traitsIcESaIcEEE+0x322>
    15f8:	48 8d 35 91 7a 00 00 	lea    rsi,[rip+0x7a91]        # 9090 <_ZStL19piecewise_construct+0x88>
    15ff:	48 8d 3d 3a 9a 00 00 	lea    rdi,[rip+0x9a3a]        # b040 <_ZSt4cout@@GLIBCXX_3.4>
    1606:	e8 65 fb ff ff       	call   1170 <_ZStlsISt11char_traitsIcEERSt13basic_ostreamIcT_ES5_PKc@plt>
    160b:	8b 45 a8             	mov    eax,DWORD PTR [rbp-0x58]
    160e:	48 63 d0             	movsxd rdx,eax
    1611:	48 8d 45 c0          	lea    rax,[rbp-0x40]
    1615:	48 89 d6             	mov    rsi,rdx
    1618:	48 89 c7             	mov    rdi,rax
    161b:	e8 d0 fb ff ff       	call   11f0 <_ZNSt7__cxx1112basic_stringIcSt11char_traitsIcESaIcEEixEm@plt>
    1620:	0f b6 00             	movzx  eax,BYTE PTR [rax]
    1623:	3c 48                	cmp    al,0x48
    1625:	74 1c                	je     1643 <_Z9ascii_artNSt7__cxx1112basic_stringIcSt11char_traitsIcESaIcEEE+0x35a>
    1627:	8b 45 a8             	mov    eax,DWORD PTR [rbp-0x58]
    162a:	48 63 d0             	movsxd rdx,eax
    162d:	48 8d 45 c0          	lea    rax,[rbp-0x40]
    1631:	48 89 d6             	mov    rsi,rdx
    1634:	48 89 c7             	mov    rdi,rax
    1637:	e8 b4 fb ff ff       	call   11f0 <_ZNSt7__cxx1112basic_stringIcSt11char_traitsIcESaIcEEixEm@plt>
    163c:	0f b6 00             	movzx  eax,BYTE PTR [rax]
    163f:	3c 68                	cmp    al,0x68
    1641:	75 07                	jne    164a <_Z9ascii_artNSt7__cxx1112basic_stringIcSt11char_traitsIcESaIcEEE+0x361>
    1643:	b8 01 00 00 00       	mov    eax,0x1
    1648:	eb 05                	jmp    164f <_Z9ascii_artNSt7__cxx1112basic_stringIcSt11char_traitsIcESaIcEEE+0x366>
    164a:	b8 00 00 00 00       	mov    eax,0x0
    164f:	84 c0                	test   al,al
    1651:	74 13                	je     1666 <_Z9ascii_artNSt7__cxx1112basic_stringIcSt11char_traitsIcESaIcEEE+0x37d>
    1653:	48 8d 35 3f 7a 00 00 	lea    rsi,[rip+0x7a3f]        # 9099 <_ZStL19piecewise_construct+0x91>
    165a:	48 8d 3d df 99 00 00 	lea    rdi,[rip+0x99df]        # b040 <_ZSt4cout@@GLIBCXX_3.4>
    1661:	e8 0a fb ff ff       	call   1170 <_ZStlsISt11char_traitsIcEERSt13basic_ostreamIcT_ES5_PKc@plt>
    1666:	8b 45 a8             	mov    eax,DWORD PTR [rbp-0x58]
    1669:	48 63 d0             	movsxd rdx,eax
    166c:	48 8d 45 c0          	lea    rax,[rbp-0x40]
    1670:	48 89 d6             	mov    rsi,rdx
    1673:	48 89 c7             	mov    rdi,rax
    1676:	e8 75 fb ff ff       	call   11f0 <_ZNSt7__cxx1112basic_stringIcSt11char_traitsIcESaIcEEixEm@plt>
    167b:	0f b6 00             	movzx  eax,BYTE PTR [rax]
    167e:	3c 49                	cmp    al,0x49
    1680:	74 1c                	je     169e <_Z9ascii_artNSt7__cxx1112basic_stringIcSt11char_traitsIcESaIcEEE+0x3b5>
    1682:	8b 45 a8             	mov    eax,DWORD PTR [rbp-0x58]
    1685:	48 63 d0             	movsxd rdx,eax
    1688:	48 8d 45 c0          	lea    rax,[rbp-0x40]
    168c:	48 89 d6             	mov    rsi,rdx
    168f:	48 89 c7             	mov    rdi,rax
    1692:	e8 59 fb ff ff       	call   11f0 <_ZNSt7__cxx1112basic_stringIcSt11char_traitsIcESaIcEEixEm@plt>
    1697:	0f b6 00             	movzx  eax,BYTE PTR [rax]
    169a:	3c 69                	cmp    al,0x69
    169c:	75 07                	jne    16a5 <_Z9ascii_artNSt7__cxx1112basic_stringIcSt11char_traitsIcESaIcEEE+0x3bc>
    169e:	b8 01 00 00 00       	mov    eax,0x1
    16a3:	eb 05                	jmp    16aa <_Z9ascii_artNSt7__cxx1112basic_stringIcSt11char_traitsIcESaIcEEE+0x3c1>
    16a5:	b8 00 00 00 00       	mov    eax,0x0
    16aa:	84 c0                	test   al,al
    16ac:	74 13                	je     16c1 <_Z9ascii_artNSt7__cxx1112basic_stringIcSt11char_traitsIcESaIcEEE+0x3d8>
    16ae:	48 8d 35 db 79 00 00 	lea    rsi,[rip+0x79db]        # 9090 <_ZStL19piecewise_construct+0x88>
    16b5:	48 8d 3d 84 99 00 00 	lea    rdi,[rip+0x9984]        # b040 <_ZSt4cout@@GLIBCXX_3.4>
    16bc:	e8 af fa ff ff       	call   1170 <_ZStlsISt11char_traitsIcEERSt13basic_ostreamIcT_ES5_PKc@plt>
    16c1:	8b 45 a8             	mov    eax,DWORD PTR [rbp-0x58]
    16c4:	48 63 d0             	movsxd rdx,eax
    16c7:	48 8d 45 c0          	lea    rax,[rbp-0x40]
    16cb:	48 89 d6             	mov    rsi,rdx
    16ce:	48 89 c7             	mov    rdi,rax
    16d1:	e8 1a fb ff ff       	call   11f0 <_ZNSt7__cxx1112basic_stringIcSt11char_traitsIcESaIcEEixEm@plt>
    16d6:	0f b6 00             	movzx  eax,BYTE PTR [rax]
    16d9:	3c 4a                	cmp    al,0x4a
    16db:	74 1c                	je     16f9 <_Z9ascii_artNSt7__cxx1112basic_stringIcSt11char_traitsIcESaIcEEE+0x410>
    16dd:	8b 45 a8             	mov    eax,DWORD PTR [rbp-0x58]
    16e0:	48 63 d0             	movsxd rdx,eax
    16e3:	48 8d 45 c0          	lea    rax,[rbp-0x40]
    16e7:	48 89 d6             	mov    rsi,rdx
    16ea:	48 89 c7             	mov    rdi,rax
    16ed:	e8 fe fa ff ff       	call   11f0 <_ZNSt7__cxx1112basic_stringIcSt11char_traitsIcESaIcEEixEm@plt>
    16f2:	0f b6 00             	movzx  eax,BYTE PTR [rax]
    16f5:	3c 6a                	cmp    al,0x6a
    16f7:	75 07                	jne    1700 <_Z9ascii_artNSt7__cxx1112basic_stringIcSt11char_traitsIcESaIcEEE+0x417>
    16f9:	b8 01 00 00 00       	mov    eax,0x1
    16fe:	eb 05                	jmp    1705 <_Z9ascii_artNSt7__cxx1112basic_stringIcSt11char_traitsIcESaIcEEE+0x41c>
    1700:	b8 00 00 00 00       	mov    eax,0x0
    1705:	84 c0                	test   al,al
    1707:	74 13                	je     171c <_Z9ascii_artNSt7__cxx1112basic_stringIcSt11char_traitsIcESaIcEEE+0x433>
    1709:	48 8d 35 92 79 00 00 	lea    rsi,[rip+0x7992]        # 90a2 <_ZStL19piecewise_construct+0x9a>
    1710:	48 8d 3d 29 99 00 00 	lea    rdi,[rip+0x9929]        # b040 <_ZSt4cout@@GLIBCXX_3.4>
    1717:	e8 54 fa ff ff       	call   1170 <_ZStlsISt11char_traitsIcEERSt13basic_ostreamIcT_ES5_PKc@plt>
    171c:	8b 45 a8             	mov    eax,DWORD PTR [rbp-0x58]
    171f:	48 63 d0             	movsxd rdx,eax
    1722:	48 8d 45 c0          	lea    rax,[rbp-0x40]
    1726:	48 89 d6             	mov    rsi,rdx
    1729:	48 89 c7             	mov    rdi,rax
    172c:	e8 bf fa ff ff       	call   11f0 <_ZNSt7__cxx1112basic_stringIcSt11char_traitsIcESaIcEEixEm@plt>
    1731:	0f b6 00             	movzx  eax,BYTE PTR [rax]
    1734:	3c 4b                	cmp    al,0x4b
    1736:	74 1c                	je     1754 <_Z9ascii_artNSt7__cxx1112basic_stringIcSt11char_traitsIcESaIcEEE+0x46b>
    1738:	8b 45 a8             	mov    eax,DWORD PTR [rbp-0x58]
    173b:	48 63 d0             	movsxd rdx,eax
    173e:	48 8d 45 c0          	lea    rax,[rbp-0x40]
    1742:	48 89 d6             	mov    rsi,rdx
    1745:	48 89 c7             	mov    rdi,rax
    1748:	e8 a3 fa ff ff       	call   11f0 <_ZNSt7__cxx1112basic_stringIcSt11char_traitsIcESaIcEEixEm@plt>
    174d:	0f b6 00             	movzx  eax,BYTE PTR [rax]
    1750:	3c 6b                	cmp    al,0x6b
    1752:	75 07                	jne    175b <_Z9ascii_artNSt7__cxx1112basic_stringIcSt11char_traitsIcESaIcEEE+0x472>
    1754:	b8 01 00 00 00       	mov    eax,0x1
    1759:	eb 05                	jmp    1760 <_Z9ascii_artNSt7__cxx1112basic_stringIcSt11char_traitsIcESaIcEEE+0x477>
    175b:	b8 00 00 00 00       	mov    eax,0x0
    1760:	84 c0                	test   al,al
    1762:	74 13                	je     1777 <_Z9ascii_artNSt7__cxx1112basic_stringIcSt11char_traitsIcESaIcEEE+0x48e>
    1764:	48 8d 35 40 79 00 00 	lea    rsi,[rip+0x7940]        # 90ab <_ZStL19piecewise_construct+0xa3>
    176b:	48 8d 3d ce 98 00 00 	lea    rdi,[rip+0x98ce]        # b040 <_ZSt4cout@@GLIBCXX_3.4>
    1772:	e8 f9 f9 ff ff       	call   1170 <_ZStlsISt11char_traitsIcEERSt13basic_ostreamIcT_ES5_PKc@plt>
    1777:	8b 45 a8             	mov    eax,DWORD PTR [rbp-0x58]
    177a:	48 63 d0             	movsxd rdx,eax
    177d:	48 8d 45 c0          	lea    rax,[rbp-0x40]
    1781:	48 89 d6             	mov    rsi,rdx
    1784:	48 89 c7             	mov    rdi,rax
    1787:	e8 64 fa ff ff       	call   11f0 <_ZNSt7__cxx1112basic_stringIcSt11char_traitsIcESaIcEEixEm@plt>
    178c:	0f b6 00             	movzx  eax,BYTE PTR [rax]
    178f:	3c 4c                	cmp    al,0x4c
    1791:	74 1c                	je     17af <_Z9ascii_artNSt7__cxx1112basic_stringIcSt11char_traitsIcESaIcEEE+0x4c6>
    1793:	8b 45 a8             	mov    eax,DWORD PTR [rbp-0x58]
    1796:	48 63 d0             	movsxd rdx,eax
    1799:	48 8d 45 c0          	lea    rax,[rbp-0x40]
    179d:	48 89 d6             	mov    rsi,rdx
    17a0:	48 89 c7             	mov    rdi,rax
    17a3:	e8 48 fa ff ff       	call   11f0 <_ZNSt7__cxx1112basic_stringIcSt11char_traitsIcESaIcEEixEm@plt>
    17a8:	0f b6 00             	movzx  eax,BYTE PTR [rax]
    17ab:	3c 6c                	cmp    al,0x6c
    17ad:	75 07                	jne    17b6 <_Z9ascii_artNSt7__cxx1112basic_stringIcSt11char_traitsIcESaIcEEE+0x4cd>
    17af:	b8 01 00 00 00       	mov    eax,0x1
    17b4:	eb 05                	jmp    17bb <_Z9ascii_artNSt7__cxx1112basic_stringIcSt11char_traitsIcESaIcEEE+0x4d2>
    17b6:	b8 00 00 00 00       	mov    eax,0x0
    17bb:	84 c0                	test   al,al
    17bd:	74 13                	je     17d2 <_Z9ascii_artNSt7__cxx1112basic_stringIcSt11char_traitsIcESaIcEEE+0x4e9>
    17bf:	48 8d 35 ee 78 00 00 	lea    rsi,[rip+0x78ee]        # 90b4 <_ZStL19piecewise_construct+0xac>
    17c6:	48 8d 3d 73 98 00 00 	lea    rdi,[rip+0x9873]        # b040 <_ZSt4cout@@GLIBCXX_3.4>
    17cd:	e8 9e f9 ff ff       	call   1170 <_ZStlsISt11char_traitsIcEERSt13basic_ostreamIcT_ES5_PKc@plt>
    17d2:	8b 45 a8             	mov    eax,DWORD PTR [rbp-0x58]
    17d5:	48 63 d0             	movsxd rdx,eax
    17d8:	48 8d 45 c0          	lea    rax,[rbp-0x40]
    17dc:	48 89 d6             	mov    rsi,rdx
    17df:	48 89 c7             	mov    rdi,rax
    17e2:	e8 09 fa ff ff       	call   11f0 <_ZNSt7__cxx1112basic_stringIcSt11char_traitsIcESaIcEEixEm@plt>
    17e7:	0f b6 00             	movzx  eax,BYTE PTR [rax]
    17ea:	3c 4d                	cmp    al,0x4d
    17ec:	74 1c                	je     180a <_Z9ascii_artNSt7__cxx1112basic_stringIcSt11char_traitsIcESaIcEEE+0x521>
    17ee:	8b 45 a8             	mov    eax,DWORD PTR [rbp-0x58]
    17f1:	48 63 d0             	movsxd rdx,eax
    17f4:	48 8d 45 c0          	lea    rax,[rbp-0x40]
    17f8:	48 89 d6             	mov    rsi,rdx
    17fb:	48 89 c7             	mov    rdi,rax
    17fe:	e8 ed f9 ff ff       	call   11f0 <_ZNSt7__cxx1112basic_stringIcSt11char_traitsIcESaIcEEixEm@plt>
    1803:	0f b6 00             	movzx  eax,BYTE PTR [rax]
    1806:	3c 6d                	cmp    al,0x6d
    1808:	75 07                	jne    1811 <_Z9ascii_artNSt7__cxx1112basic_stringIcSt11char_traitsIcESaIcEEE+0x528>
    180a:	b8 01 00 00 00       	mov    eax,0x1
    180f:	eb 05                	jmp    1816 <_Z9ascii_artNSt7__cxx1112basic_stringIcSt11char_traitsIcESaIcEEE+0x52d>
    1811:	b8 00 00 00 00       	mov    eax,0x0
    1816:	84 c0                	test   al,al
    1818:	74 13                	je     182d <_Z9ascii_artNSt7__cxx1112basic_stringIcSt11char_traitsIcESaIcEEE+0x544>
    181a:	48 8d 35 9c 78 00 00 	lea    rsi,[rip+0x789c]        # 90bd <_ZStL19piecewise_construct+0xb5>
    1821:	48 8d 3d 18 98 00 00 	lea    rdi,[rip+0x9818]        # b040 <_ZSt4cout@@GLIBCXX_3.4>
    1828:	e8 43 f9 ff ff       	call   1170 <_ZStlsISt11char_traitsIcEERSt13basic_ostreamIcT_ES5_PKc@plt>
    182d:	8b 45 a8             	mov    eax,DWORD PTR [rbp-0x58]
    1830:	48 63 d0             	movsxd rdx,eax
    1833:	48 8d 45 c0          	lea    rax,[rbp-0x40]
    1837:	48 89 d6             	mov    rsi,rdx
    183a:	48 89 c7             	mov    rdi,rax
    183d:	e8 ae f9 ff ff       	call   11f0 <_ZNSt7__cxx1112basic_stringIcSt11char_traitsIcESaIcEEixEm@plt>
    1842:	0f b6 00             	movzx  eax,BYTE PTR [rax]
    1845:	3c 4e                	cmp    al,0x4e
    1847:	74 1c                	je     1865 <_Z9ascii_artNSt7__cxx1112basic_stringIcSt11char_traitsIcESaIcEEE+0x57c>
    1849:	8b 45 a8             	mov    eax,DWORD PTR [rbp-0x58]
    184c:	48 63 d0             	movsxd rdx,eax
    184f:	48 8d 45 c0          	lea    rax,[rbp-0x40]
    1853:	48 89 d6             	mov    rsi,rdx
    1856:	48 89 c7             	mov    rdi,rax
    1859:	e8 92 f9 ff ff       	call   11f0 <_ZNSt7__cxx1112basic_stringIcSt11char_traitsIcESaIcEEixEm@plt>
    185e:	0f b6 00             	movzx  eax,BYTE PTR [rax]
    1861:	3c 6e                	cmp    al,0x6e
    1863:	75 07                	jne    186c <_Z9ascii_artNSt7__cxx1112basic_stringIcSt11char_traitsIcESaIcEEE+0x583>
    1865:	b8 01 00 00 00       	mov    eax,0x1
    186a:	eb 05                	jmp    1871 <_Z9ascii_artNSt7__cxx1112basic_stringIcSt11char_traitsIcESaIcEEE+0x588>
    186c:	b8 00 00 00 00       	mov    eax,0x0
    1871:	84 c0                	test   al,al
    1873:	74 13                	je     1888 <_Z9ascii_artNSt7__cxx1112basic_stringIcSt11char_traitsIcESaIcEEE+0x59f>
    1875:	48 8d 35 1d 78 00 00 	lea    rsi,[rip+0x781d]        # 9099 <_ZStL19piecewise_construct+0x91>
    187c:	48 8d 3d bd 97 00 00 	lea    rdi,[rip+0x97bd]        # b040 <_ZSt4cout@@GLIBCXX_3.4>
    1883:	e8 e8 f8 ff ff       	call   1170 <_ZStlsISt11char_traitsIcEERSt13basic_ostreamIcT_ES5_PKc@plt>
    1888:	8b 45 a8             	mov    eax,DWORD PTR [rbp-0x58]
    188b:	48 63 d0             	movsxd rdx,eax
    188e:	48 8d 45 c0          	lea    rax,[rbp-0x40]
    1892:	48 89 d6             	mov    rsi,rdx
    1895:	48 89 c7             	mov    rdi,rax
    1898:	e8 53 f9 ff ff       	call   11f0 <_ZNSt7__cxx1112basic_stringIcSt11char_traitsIcESaIcEEixEm@plt>
    189d:	0f b6 00             	movzx  eax,BYTE PTR [rax]
    18a0:	3c 4f                	cmp    al,0x4f
    18a2:	74 1c                	je     18c0 <_Z9ascii_artNSt7__cxx1112basic_stringIcSt11char_traitsIcESaIcEEE+0x5d7>
    18a4:	8b 45 a8             	mov    eax,DWORD PTR [rbp-0x58]
    18a7:	48 63 d0             	movsxd rdx,eax
    18aa:	48 8d 45 c0          	lea    rax,[rbp-0x40]
    18ae:	48 89 d6             	mov    rsi,rdx
    18b1:	48 89 c7             	mov    rdi,rax
    18b4:	e8 37 f9 ff ff       	call   11f0 <_ZNSt7__cxx1112basic_stringIcSt11char_traitsIcESaIcEEixEm@plt>
    18b9:	0f b6 00             	movzx  eax,BYTE PTR [rax]
    18bc:	3c 6f                	cmp    al,0x6f
    18be:	75 07                	jne    18c7 <_Z9ascii_artNSt7__cxx1112basic_stringIcSt11char_traitsIcESaIcEEE+0x5de>
    18c0:	b8 01 00 00 00       	mov    eax,0x1
    18c5:	eb 05                	jmp    18cc <_Z9ascii_artNSt7__cxx1112basic_stringIcSt11char_traitsIcESaIcEEE+0x5e3>
    18c7:	b8 00 00 00 00       	mov    eax,0x0
    18cc:	84 c0                	test   al,al
    18ce:	74 13                	je     18e3 <_Z9ascii_artNSt7__cxx1112basic_stringIcSt11char_traitsIcESaIcEEE+0x5fa>
    18d0:	48 8d 35 b9 77 00 00 	lea    rsi,[rip+0x77b9]        # 9090 <_ZStL19piecewise_construct+0x88>
    18d7:	48 8d 3d 62 97 00 00 	lea    rdi,[rip+0x9762]        # b040 <_ZSt4cout@@GLIBCXX_3.4>
    18de:	e8 8d f8 ff ff       	call   1170 <_ZStlsISt11char_traitsIcEERSt13basic_ostreamIcT_ES5_PKc@plt>
    18e3:	8b 45 a8             	mov    eax,DWORD PTR [rbp-0x58]
    18e6:	48 63 d0             	movsxd rdx,eax
    18e9:	48 8d 45 c0          	lea    rax,[rbp-0x40]
    18ed:	48 89 d6             	mov    rsi,rdx
    18f0:	48 89 c7             	mov    rdi,rax
    18f3:	e8 f8 f8 ff ff       	call   11f0 <_ZNSt7__cxx1112basic_stringIcSt11char_traitsIcESaIcEEixEm@plt>
    18f8:	0f b6 00             	movzx  eax,BYTE PTR [rax]
    18fb:	3c 50                	cmp    al,0x50
    18fd:	74 1c                	je     191b <_Z9ascii_artNSt7__cxx1112basic_stringIcSt11char_traitsIcESaIcEEE+0x632>
    18ff:	8b 45 a8             	mov    eax,DWORD PTR [rbp-0x58]
    1902:	48 63 d0             	movsxd rdx,eax
    1905:	48 8d 45 c0          	lea    rax,[rbp-0x40]
    1909:	48 89 d6             	mov    rsi,rdx
    190c:	48 89 c7             	mov    rdi,rax
    190f:	e8 dc f8 ff ff       	call   11f0 <_ZNSt7__cxx1112basic_stringIcSt11char_traitsIcESaIcEEixEm@plt>
    1914:	0f b6 00             	movzx  eax,BYTE PTR [rax]
    1917:	3c 70                	cmp    al,0x70
    1919:	75 07                	jne    1922 <_Z9ascii_artNSt7__cxx1112basic_stringIcSt11char_traitsIcESaIcEEE+0x639>
    191b:	b8 01 00 00 00       	mov    eax,0x1
    1920:	eb 05                	jmp    1927 <_Z9ascii_artNSt7__cxx1112basic_stringIcSt11char_traitsIcESaIcEEE+0x63e>
    1922:	b8 00 00 00 00       	mov    eax,0x0
    1927:	84 c0                	test   al,al
    1929:	74 13                	je     193e <_Z9ascii_artNSt7__cxx1112basic_stringIcSt11char_traitsIcESaIcEEE+0x655>
    192b:	48 8d 35 5e 77 00 00 	lea    rsi,[rip+0x775e]        # 9090 <_ZStL19piecewise_construct+0x88>
    1932:	48 8d 3d 07 97 00 00 	lea    rdi,[rip+0x9707]        # b040 <_ZSt4cout@@GLIBCXX_3.4>
    1939:	e8 32 f8 ff ff       	call   1170 <_ZStlsISt11char_traitsIcEERSt13basic_ostreamIcT_ES5_PKc@plt>
    193e:	8b 45 a8             	mov    eax,DWORD PTR [rbp-0x58]
    1941:	48 63 d0             	movsxd rdx,eax
    1944:	48 8d 45 c0          	lea    rax,[rbp-0x40]
    1948:	48 89 d6             	mov    rsi,rdx
    194b:	48 89 c7             	mov    rdi,rax
    194e:	e8 9d f8 ff ff       	call   11f0 <_ZNSt7__cxx1112basic_stringIcSt11char_traitsIcESaIcEEixEm@plt>
    1953:	0f b6 00             	movzx  eax,BYTE PTR [rax]
    1956:	3c 51                	cmp    al,0x51
    1958:	74 1c                	je     1976 <_Z9ascii_artNSt7__cxx1112basic_stringIcSt11char_traitsIcESaIcEEE+0x68d>
    195a:	8b 45 a8             	mov    eax,DWORD PTR [rbp-0x58]
    195d:	48 63 d0             	movsxd rdx,eax
    1960:	48 8d 45 c0          	lea    rax,[rbp-0x40]
    1964:	48 89 d6             	mov    rsi,rdx
    1967:	48 89 c7             	mov    rdi,rax
    196a:	e8 81 f8 ff ff       	call   11f0 <_ZNSt7__cxx1112basic_stringIcSt11char_traitsIcESaIcEEixEm@plt>
    196f:	0f b6 00             	movzx  eax,BYTE PTR [rax]
    1972:	3c 71                	cmp    al,0x71
    1974:	75 07                	jne    197d <_Z9ascii_artNSt7__cxx1112basic_stringIcSt11char_traitsIcESaIcEEE+0x694>
    1976:	b8 01 00 00 00       	mov    eax,0x1
    197b:	eb 05                	jmp    1982 <_Z9ascii_artNSt7__cxx1112basic_stringIcSt11char_traitsIcESaIcEEE+0x699>
    197d:	b8 00 00 00 00       	mov    eax,0x0
    1982:	84 c0                	test   al,al
    1984:	74 13                	je     1999 <_Z9ascii_artNSt7__cxx1112basic_stringIcSt11char_traitsIcESaIcEEE+0x6b0>
    1986:	48 8d 35 03 77 00 00 	lea    rsi,[rip+0x7703]        # 9090 <_ZStL19piecewise_construct+0x88>
    198d:	48 8d 3d ac 96 00 00 	lea    rdi,[rip+0x96ac]        # b040 <_ZSt4cout@@GLIBCXX_3.4>
    1994:	e8 d7 f7 ff ff       	call   1170 <_ZStlsISt11char_traitsIcEERSt13basic_ostreamIcT_ES5_PKc@plt>
    1999:	8b 45 a8             	mov    eax,DWORD PTR [rbp-0x58]
    199c:	48 63 d0             	movsxd rdx,eax
    199f:	48 8d 45 c0          	lea    rax,[rbp-0x40]
    19a3:	48 89 d6             	mov    rsi,rdx
    19a6:	48 89 c7             	mov    rdi,rax
    19a9:	e8 42 f8 ff ff       	call   11f0 <_ZNSt7__cxx1112basic_stringIcSt11char_traitsIcESaIcEEixEm@plt>
    19ae:	0f b6 00             	movzx  eax,BYTE PTR [rax]
    19b1:	3c 52                	cmp    al,0x52
    19b3:	74 1c                	je     19d1 <_Z9ascii_artNSt7__cxx1112basic_stringIcSt11char_traitsIcESaIcEEE+0x6e8>
    19b5:	8b 45 a8             	mov    eax,DWORD PTR [rbp-0x58]
    19b8:	48 63 d0             	movsxd rdx,eax
    19bb:	48 8d 45 c0          	lea    rax,[rbp-0x40]
    19bf:	48 89 d6             	mov    rsi,rdx
    19c2:	48 89 c7             	mov    rdi,rax
    19c5:	e8 26 f8 ff ff       	call   11f0 <_ZNSt7__cxx1112basic_stringIcSt11char_traitsIcESaIcEEixEm@plt>
    19ca:	0f b6 00             	movzx  eax,BYTE PTR [rax]
    19cd:	3c 72                	cmp    al,0x72
    19cf:	75 07                	jne    19d8 <_Z9ascii_artNSt7__cxx1112basic_stringIcSt11char_traitsIcESaIcEEE+0x6ef>
    19d1:	b8 01 00 00 00       	mov    eax,0x1
    19d6:	eb 05                	jmp    19dd <_Z9ascii_artNSt7__cxx1112basic_stringIcSt11char_traitsIcESaIcEEE+0x6f4>
    19d8:	b8 00 00 00 00       	mov    eax,0x0
    19dd:	84 c0                	test   al,al
    19df:	74 13                	je     19f4 <_Z9ascii_artNSt7__cxx1112basic_stringIcSt11char_traitsIcESaIcEEE+0x70b>
    19e1:	48 8d 35 a8 76 00 00 	lea    rsi,[rip+0x76a8]        # 9090 <_ZStL19piecewise_construct+0x88>
    19e8:	48 8d 3d 51 96 00 00 	lea    rdi,[rip+0x9651]        # b040 <_ZSt4cout@@GLIBCXX_3.4>
    19ef:	e8 7c f7 ff ff       	call   1170 <_ZStlsISt11char_traitsIcEERSt13basic_ostreamIcT_ES5_PKc@plt>
    19f4:	8b 45 a8             	mov    eax,DWORD PTR [rbp-0x58]
    19f7:	48 63 d0             	movsxd rdx,eax
    19fa:	48 8d 45 c0          	lea    rax,[rbp-0x40]
    19fe:	48 89 d6             	mov    rsi,rdx
    1a01:	48 89 c7             	mov    rdi,rax
    1a04:	e8 e7 f7 ff ff       	call   11f0 <_ZNSt7__cxx1112basic_stringIcSt11char_traitsIcESaIcEEixEm@plt>
    1a09:	0f b6 00             	movzx  eax,BYTE PTR [rax]
    1a0c:	3c 53                	cmp    al,0x53
    1a0e:	74 1c                	je     1a2c <_Z9ascii_artNSt7__cxx1112basic_stringIcSt11char_traitsIcESaIcEEE+0x743>
    1a10:	8b 45 a8             	mov    eax,DWORD PTR [rbp-0x58]
    1a13:	48 63 d0             	movsxd rdx,eax
    1a16:	48 8d 45 c0          	lea    rax,[rbp-0x40]
    1a1a:	48 89 d6             	mov    rsi,rdx
    1a1d:	48 89 c7             	mov    rdi,rax
    1a20:	e8 cb f7 ff ff       	call   11f0 <_ZNSt7__cxx1112basic_stringIcSt11char_traitsIcESaIcEEixEm@plt>
    1a25:	0f b6 00             	movzx  eax,BYTE PTR [rax]
    1a28:	3c 73                	cmp    al,0x73
    1a2a:	75 07                	jne    1a33 <_Z9ascii_artNSt7__cxx1112basic_stringIcSt11char_traitsIcESaIcEEE+0x74a>
    1a2c:	b8 01 00 00 00       	mov    eax,0x1
    1a31:	eb 05                	jmp    1a38 <_Z9ascii_artNSt7__cxx1112basic_stringIcSt11char_traitsIcESaIcEEE+0x74f>
    1a33:	b8 00 00 00 00       	mov    eax,0x0
    1a38:	84 c0                	test   al,al
    1a3a:	74 13                	je     1a4f <_Z9ascii_artNSt7__cxx1112basic_stringIcSt11char_traitsIcESaIcEEE+0x766>
    1a3c:	48 8d 35 4d 76 00 00 	lea    rsi,[rip+0x764d]        # 9090 <_ZStL19piecewise_construct+0x88>
    1a43:	48 8d 3d f6 95 00 00 	lea    rdi,[rip+0x95f6]        # b040 <_ZSt4cout@@GLIBCXX_3.4>
    1a4a:	e8 21 f7 ff ff       	call   1170 <_ZStlsISt11char_traitsIcEERSt13basic_ostreamIcT_ES5_PKc@plt>
    1a4f:	8b 45 a8             	mov    eax,DWORD PTR [rbp-0x58]
    1a52:	48 63 d0             	movsxd rdx,eax
    1a55:	48 8d 45 c0          	lea    rax,[rbp-0x40]
    1a59:	48 89 d6             	mov    rsi,rdx
    1a5c:	48 89 c7             	mov    rdi,rax
    1a5f:	e8 8c f7 ff ff       	call   11f0 <_ZNSt7__cxx1112basic_stringIcSt11char_traitsIcESaIcEEixEm@plt>
    1a64:	0f b6 00             	movzx  eax,BYTE PTR [rax]
    1a67:	3c 54                	cmp    al,0x54
    1a69:	74 1c                	je     1a87 <_Z9ascii_artNSt7__cxx1112basic_stringIcSt11char_traitsIcESaIcEEE+0x79e>
    1a6b:	8b 45 a8             	mov    eax,DWORD PTR [rbp-0x58]
    1a6e:	48 63 d0             	movsxd rdx,eax
    1a71:	48 8d 45 c0          	lea    rax,[rbp-0x40]
    1a75:	48 89 d6             	mov    rsi,rdx
    1a78:	48 89 c7             	mov    rdi,rax
    1a7b:	e8 70 f7 ff ff       	call   11f0 <_ZNSt7__cxx1112basic_stringIcSt11char_traitsIcESaIcEEixEm@plt>
    1a80:	0f b6 00             	movzx  eax,BYTE PTR [rax]
    1a83:	3c 74                	cmp    al,0x74
    1a85:	75 07                	jne    1a8e <_Z9ascii_artNSt7__cxx1112basic_stringIcSt11char_traitsIcESaIcEEE+0x7a5>
    1a87:	b8 01 00 00 00       	mov    eax,0x1
    1a8c:	eb 05                	jmp    1a93 <_Z9ascii_artNSt7__cxx1112basic_stringIcSt11char_traitsIcESaIcEEE+0x7aa>
    1a8e:	b8 00 00 00 00       	mov    eax,0x0
    1a93:	84 c0                	test   al,al
    1a95:	74 13                	je     1aaa <_Z9ascii_artNSt7__cxx1112basic_stringIcSt11char_traitsIcESaIcEEE+0x7c1>
    1a97:	48 8d 35 f2 75 00 00 	lea    rsi,[rip+0x75f2]        # 9090 <_ZStL19piecewise_construct+0x88>
    1a9e:	48 8d 3d 9b 95 00 00 	lea    rdi,[rip+0x959b]        # b040 <_ZSt4cout@@GLIBCXX_3.4>
    1aa5:	e8 c6 f6 ff ff       	call   1170 <_ZStlsISt11char_traitsIcEERSt13basic_ostreamIcT_ES5_PKc@plt>
    1aaa:	8b 45 a8             	mov    eax,DWORD PTR [rbp-0x58]
    1aad:	48 63 d0             	movsxd rdx,eax
    1ab0:	48 8d 45 c0          	lea    rax,[rbp-0x40]
    1ab4:	48 89 d6             	mov    rsi,rdx
    1ab7:	48 89 c7             	mov    rdi,rax
    1aba:	e8 31 f7 ff ff       	call   11f0 <_ZNSt7__cxx1112basic_stringIcSt11char_traitsIcESaIcEEixEm@plt>
    1abf:	0f b6 00             	movzx  eax,BYTE PTR [rax]
    1ac2:	3c 55                	cmp    al,0x55
    1ac4:	74 1c                	je     1ae2 <_Z9ascii_artNSt7__cxx1112basic_stringIcSt11char_traitsIcESaIcEEE+0x7f9>
    1ac6:	8b 45 a8             	mov    eax,DWORD PTR [rbp-0x58]
    1ac9:	48 63 d0             	movsxd rdx,eax
    1acc:	48 8d 45 c0          	lea    rax,[rbp-0x40]
    1ad0:	48 89 d6             	mov    rsi,rdx
    1ad3:	48 89 c7             	mov    rdi,rax
    1ad6:	e8 15 f7 ff ff       	call   11f0 <_ZNSt7__cxx1112basic_stringIcSt11char_traitsIcESaIcEEixEm@plt>
    1adb:	0f b6 00             	movzx  eax,BYTE PTR [rax]
    1ade:	3c 75                	cmp    al,0x75
    1ae0:	75 07                	jne    1ae9 <_Z9ascii_artNSt7__cxx1112basic_stringIcSt11char_traitsIcESaIcEEE+0x800>
    1ae2:	b8 01 00 00 00       	mov    eax,0x1
    1ae7:	eb 05                	jmp    1aee <_Z9ascii_artNSt7__cxx1112basic_stringIcSt11char_traitsIcESaIcEEE+0x805>
    1ae9:	b8 00 00 00 00       	mov    eax,0x0
    1aee:	84 c0                	test   al,al
    1af0:	74 13                	je     1b05 <_Z9ascii_artNSt7__cxx1112basic_stringIcSt11char_traitsIcESaIcEEE+0x81c>
    1af2:	48 8d 35 a0 75 00 00 	lea    rsi,[rip+0x75a0]        # 9099 <_ZStL19piecewise_construct+0x91>
    1af9:	48 8d 3d 40 95 00 00 	lea    rdi,[rip+0x9540]        # b040 <_ZSt4cout@@GLIBCXX_3.4>
    1b00:	e8 6b f6 ff ff       	call   1170 <_ZStlsISt11char_traitsIcEERSt13basic_ostreamIcT_ES5_PKc@plt>
    1b05:	8b 45 a8             	mov    eax,DWORD PTR [rbp-0x58]
    1b08:	48 63 d0             	movsxd rdx,eax
    1b0b:	48 8d 45 c0          	lea    rax,[rbp-0x40]
    1b0f:	48 89 d6             	mov    rsi,rdx
    1b12:	48 89 c7             	mov    rdi,rax
    1b15:	e8 d6 f6 ff ff       	call   11f0 <_ZNSt7__cxx1112basic_stringIcSt11char_traitsIcESaIcEEixEm@plt>
    1b1a:	0f b6 00             	movzx  eax,BYTE PTR [rax]
    1b1d:	3c 56                	cmp    al,0x56
    1b1f:	74 1c                	je     1b3d <_Z9ascii_artNSt7__cxx1112basic_stringIcSt11char_traitsIcESaIcEEE+0x854>
    1b21:	8b 45 a8             	mov    eax,DWORD PTR [rbp-0x58]
    1b24:	48 63 d0             	movsxd rdx,eax
    1b27:	48 8d 45 c0          	lea    rax,[rbp-0x40]
    1b2b:	48 89 d6             	mov    rsi,rdx
    1b2e:	48 89 c7             	mov    rdi,rax
    1b31:	e8 ba f6 ff ff       	call   11f0 <_ZNSt7__cxx1112basic_stringIcSt11char_traitsIcESaIcEEixEm@plt>
    1b36:	0f b6 00             	movzx  eax,BYTE PTR [rax]
    1b39:	3c 76                	cmp    al,0x76
    1b3b:	75 07                	jne    1b44 <_Z9ascii_artNSt7__cxx1112basic_stringIcSt11char_traitsIcESaIcEEE+0x85b>
    1b3d:	b8 01 00 00 00       	mov    eax,0x1
    1b42:	eb 05                	jmp    1b49 <_Z9ascii_artNSt7__cxx1112basic_stringIcSt11char_traitsIcESaIcEEE+0x860>
    1b44:	b8 00 00 00 00       	mov    eax,0x0
    1b49:	84 c0                	test   al,al
    1b4b:	74 13                	je     1b60 <_Z9ascii_artNSt7__cxx1112basic_stringIcSt11char_traitsIcESaIcEEE+0x877>
    1b4d:	48 8d 35 45 75 00 00 	lea    rsi,[rip+0x7545]        # 9099 <_ZStL19piecewise_construct+0x91>
    1b54:	48 8d 3d e5 94 00 00 	lea    rdi,[rip+0x94e5]        # b040 <_ZSt4cout@@GLIBCXX_3.4>
    1b5b:	e8 10 f6 ff ff       	call   1170 <_ZStlsISt11char_traitsIcEERSt13basic_ostreamIcT_ES5_PKc@plt>
    1b60:	8b 45 a8             	mov    eax,DWORD PTR [rbp-0x58]
    1b63:	48 63 d0             	movsxd rdx,eax
    1b66:	48 8d 45 c0          	lea    rax,[rbp-0x40]
    1b6a:	48 89 d6             	mov    rsi,rdx
    1b6d:	48 89 c7             	mov    rdi,rax
    1b70:	e8 7b f6 ff ff       	call   11f0 <_ZNSt7__cxx1112basic_stringIcSt11char_traitsIcESaIcEEixEm@plt>
    1b75:	0f b6 00             	movzx  eax,BYTE PTR [rax]
    1b78:	3c 57                	cmp    al,0x57
    1b7a:	74 1c                	je     1b98 <_Z9ascii_artNSt7__cxx1112basic_stringIcSt11char_traitsIcESaIcEEE+0x8af>
    1b7c:	8b 45 a8             	mov    eax,DWORD PTR [rbp-0x58]
    1b7f:	48 63 d0             	movsxd rdx,eax
    1b82:	48 8d 45 c0          	lea    rax,[rbp-0x40]
    1b86:	48 89 d6             	mov    rsi,rdx
    1b89:	48 89 c7             	mov    rdi,rax
    1b8c:	e8 5f f6 ff ff       	call   11f0 <_ZNSt7__cxx1112basic_stringIcSt11char_traitsIcESaIcEEixEm@plt>
    1b91:	0f b6 00             	movzx  eax,BYTE PTR [rax]
    1b94:	3c 77                	cmp    al,0x77
    1b96:	75 07                	jne    1b9f <_Z9ascii_artNSt7__cxx1112basic_stringIcSt11char_traitsIcESaIcEEE+0x8b6>
    1b98:	b8 01 00 00 00       	mov    eax,0x1
    1b9d:	eb 05                	jmp    1ba4 <_Z9ascii_artNSt7__cxx1112basic_stringIcSt11char_traitsIcESaIcEEE+0x8bb>
    1b9f:	b8 00 00 00 00       	mov    eax,0x0
    1ba4:	84 c0                	test   al,al
    1ba6:	74 13                	je     1bbb <_Z9ascii_artNSt7__cxx1112basic_stringIcSt11char_traitsIcESaIcEEE+0x8d2>
    1ba8:	48 8d 35 18 75 00 00 	lea    rsi,[rip+0x7518]        # 90c7 <_ZStL19piecewise_construct+0xbf>
    1baf:	48 8d 3d 8a 94 00 00 	lea    rdi,[rip+0x948a]        # b040 <_ZSt4cout@@GLIBCXX_3.4>
    1bb6:	e8 b5 f5 ff ff       	call   1170 <_ZStlsISt11char_traitsIcEERSt13basic_ostreamIcT_ES5_PKc@plt>
    1bbb:	8b 45 a8             	mov    eax,DWORD PTR [rbp-0x58]
    1bbe:	48 63 d0             	movsxd rdx,eax
    1bc1:	48 8d 45 c0          	lea    rax,[rbp-0x40]
    1bc5:	48 89 d6             	mov    rsi,rdx
    1bc8:	48 89 c7             	mov    rdi,rax
    1bcb:	e8 20 f6 ff ff       	call   11f0 <_ZNSt7__cxx1112basic_stringIcSt11char_traitsIcESaIcEEixEm@plt>
    1bd0:	0f b6 00             	movzx  eax,BYTE PTR [rax]
    1bd3:	3c 58                	cmp    al,0x58
    1bd5:	74 1c                	je     1bf3 <_Z9ascii_artNSt7__cxx1112basic_stringIcSt11char_traitsIcESaIcEEE+0x90a>
    1bd7:	8b 45 a8             	mov    eax,DWORD PTR [rbp-0x58]
    1bda:	48 63 d0             	movsxd rdx,eax
    1bdd:	48 8d 45 c0          	lea    rax,[rbp-0x40]
    1be1:	48 89 d6             	mov    rsi,rdx
    1be4:	48 89 c7             	mov    rdi,rax
    1be7:	e8 04 f6 ff ff       	call   11f0 <_ZNSt7__cxx1112basic_stringIcSt11char_traitsIcESaIcEEixEm@plt>
    1bec:	0f b6 00             	movzx  eax,BYTE PTR [rax]
    1bef:	3c 78                	cmp    al,0x78
    1bf1:	75 07                	jne    1bfa <_Z9ascii_artNSt7__cxx1112basic_stringIcSt11char_traitsIcESaIcEEE+0x911>
    1bf3:	b8 01 00 00 00       	mov    eax,0x1
    1bf8:	eb 05                	jmp    1bff <_Z9ascii_artNSt7__cxx1112basic_stringIcSt11char_traitsIcESaIcEEE+0x916>
    1bfa:	b8 00 00 00 00       	mov    eax,0x0
    1bff:	84 c0                	test   al,al
    1c01:	74 13                	je     1c16 <_Z9ascii_artNSt7__cxx1112basic_stringIcSt11char_traitsIcESaIcEEE+0x92d>
    1c03:	48 8d 35 c7 74 00 00 	lea    rsi,[rip+0x74c7]        # 90d1 <_ZStL19piecewise_construct+0xc9>
    1c0a:	48 8d 3d 2f 94 00 00 	lea    rdi,[rip+0x942f]        # b040 <_ZSt4cout@@GLIBCXX_3.4>
    1c11:	e8 5a f5 ff ff       	call   1170 <_ZStlsISt11char_traitsIcEERSt13basic_ostreamIcT_ES5_PKc@plt>
    1c16:	8b 45 a8             	mov    eax,DWORD PTR [rbp-0x58]
    1c19:	48 63 d0             	movsxd rdx,eax
    1c1c:	48 8d 45 c0          	lea    rax,[rbp-0x40]
    1c20:	48 89 d6             	mov    rsi,rdx
    1c23:	48 89 c7             	mov    rdi,rax
    1c26:	e8 c5 f5 ff ff       	call   11f0 <_ZNSt7__cxx1112basic_stringIcSt11char_traitsIcESaIcEEixEm@plt>
    1c2b:	0f b6 00             	movzx  eax,BYTE PTR [rax]
    1c2e:	3c 59                	cmp    al,0x59
    1c30:	74 1c                	je     1c4e <_Z9ascii_artNSt7__cxx1112basic_stringIcSt11char_traitsIcESaIcEEE+0x965>
    1c32:	8b 45 a8             	mov    eax,DWORD PTR [rbp-0x58]
    1c35:	48 63 d0             	movsxd rdx,eax
    1c38:	48 8d 45 c0          	lea    rax,[rbp-0x40]
    1c3c:	48 89 d6             	mov    rsi,rdx
    1c3f:	48 89 c7             	mov    rdi,rax
    1c42:	e8 a9 f5 ff ff       	call   11f0 <_ZNSt7__cxx1112basic_stringIcSt11char_traitsIcESaIcEEixEm@plt>
    1c47:	0f b6 00             	movzx  eax,BYTE PTR [rax]
    1c4a:	3c 79                	cmp    al,0x79
    1c4c:	75 07                	jne    1c55 <_Z9ascii_artNSt7__cxx1112basic_stringIcSt11char_traitsIcESaIcEEE+0x96c>
    1c4e:	b8 01 00 00 00       	mov    eax,0x1
    1c53:	eb 05                	jmp    1c5a <_Z9ascii_artNSt7__cxx1112basic_stringIcSt11char_traitsIcESaIcEEE+0x971>
    1c55:	b8 00 00 00 00       	mov    eax,0x0
    1c5a:	84 c0                	test   al,al
    1c5c:	74 13                	je     1c71 <_Z9ascii_artNSt7__cxx1112basic_stringIcSt11char_traitsIcESaIcEEE+0x988>
    1c5e:	48 8d 35 6c 74 00 00 	lea    rsi,[rip+0x746c]        # 90d1 <_ZStL19piecewise_construct+0xc9>
    1c65:	48 8d 3d d4 93 00 00 	lea    rdi,[rip+0x93d4]        # b040 <_ZSt4cout@@GLIBCXX_3.4>
    1c6c:	e8 ff f4 ff ff       	call   1170 <_ZStlsISt11char_traitsIcEERSt13basic_ostreamIcT_ES5_PKc@plt>
    1c71:	8b 45 a8             	mov    eax,DWORD PTR [rbp-0x58]
    1c74:	48 63 d0             	movsxd rdx,eax
    1c77:	48 8d 45 c0          	lea    rax,[rbp-0x40]
    1c7b:	48 89 d6             	mov    rsi,rdx
    1c7e:	48 89 c7             	mov    rdi,rax
    1c81:	e8 6a f5 ff ff       	call   11f0 <_ZNSt7__cxx1112basic_stringIcSt11char_traitsIcESaIcEEixEm@plt>
    1c86:	0f b6 00             	movzx  eax,BYTE PTR [rax]
    1c89:	3c 5a                	cmp    al,0x5a
    1c8b:	74 1c                	je     1ca9 <_Z9ascii_artNSt7__cxx1112basic_stringIcSt11char_traitsIcESaIcEEE+0x9c0>
    1c8d:	8b 45 a8             	mov    eax,DWORD PTR [rbp-0x58]
    1c90:	48 63 d0             	movsxd rdx,eax
    1c93:	48 8d 45 c0          	lea    rax,[rbp-0x40]
    1c97:	48 89 d6             	mov    rsi,rdx
    1c9a:	48 89 c7             	mov    rdi,rax
    1c9d:	e8 4e f5 ff ff       	call   11f0 <_ZNSt7__cxx1112basic_stringIcSt11char_traitsIcESaIcEEixEm@plt>
    1ca2:	0f b6 00             	movzx  eax,BYTE PTR [rax]
    1ca5:	3c 7a                	cmp    al,0x7a
    1ca7:	75 07                	jne    1cb0 <_Z9ascii_artNSt7__cxx1112basic_stringIcSt11char_traitsIcESaIcEEE+0x9c7>
    1ca9:	b8 01 00 00 00       	mov    eax,0x1
    1cae:	eb 05                	jmp    1cb5 <_Z9ascii_artNSt7__cxx1112basic_stringIcSt11char_traitsIcESaIcEEE+0x9cc>
    1cb0:	b8 00 00 00 00       	mov    eax,0x0
    1cb5:	84 c0                	test   al,al
    1cb7:	74 13                	je     1ccc <_Z9ascii_artNSt7__cxx1112basic_stringIcSt11char_traitsIcESaIcEEE+0x9e3>
    1cb9:	48 8d 35 1a 74 00 00 	lea    rsi,[rip+0x741a]        # 90da <_ZStL19piecewise_construct+0xd2>
    1cc0:	48 8d 3d 79 93 00 00 	lea    rdi,[rip+0x9379]        # b040 <_ZSt4cout@@GLIBCXX_3.4>
    1cc7:	e8 a4 f4 ff ff       	call   1170 <_ZStlsISt11char_traitsIcEERSt13basic_ostreamIcT_ES5_PKc@plt>
    1ccc:	8b 45 a8             	mov    eax,DWORD PTR [rbp-0x58]
    1ccf:	48 63 d0             	movsxd rdx,eax
    1cd2:	48 8d 45 c0          	lea    rax,[rbp-0x40]
    1cd6:	48 89 d6             	mov    rsi,rdx
    1cd9:	48 89 c7             	mov    rdi,rax
    1cdc:	e8 0f f5 ff ff       	call   11f0 <_ZNSt7__cxx1112basic_stringIcSt11char_traitsIcESaIcEEixEm@plt>
    1ce1:	0f b6 00             	movzx  eax,BYTE PTR [rax]
    1ce4:	3c 20                	cmp    al,0x20
    1ce6:	0f 94 c0             	sete   al
    1ce9:	84 c0                	test   al,al
    1ceb:	74 13                	je     1d00 <_Z9ascii_artNSt7__cxx1112basic_stringIcSt11char_traitsIcESaIcEEE+0xa17>
    1ced:	48 8d 35 ef 73 00 00 	lea    rsi,[rip+0x73ef]        # 90e3 <_ZStL19piecewise_construct+0xdb>
    1cf4:	48 8d 3d 45 93 00 00 	lea    rdi,[rip+0x9345]        # b040 <_ZSt4cout@@GLIBCXX_3.4>
    1cfb:	e8 70 f4 ff ff       	call   1170 <_ZStlsISt11char_traitsIcEERSt13basic_ostreamIcT_ES5_PKc@plt>
    1d00:	8b 45 a8             	mov    eax,DWORD PTR [rbp-0x58]
    1d03:	48 63 d0             	movsxd rdx,eax
    1d06:	48 8d 45 c0          	lea    rax,[rbp-0x40]
    1d0a:	48 89 d6             	mov    rsi,rdx
    1d0d:	48 89 c7             	mov    rdi,rax
    1d10:	e8 db f4 ff ff       	call   11f0 <_ZNSt7__cxx1112basic_stringIcSt11char_traitsIcESaIcEEixEm@plt>
    1d15:	0f b6 00             	movzx  eax,BYTE PTR [rax]
    1d18:	3c 60                	cmp    al,0x60
    1d1a:	0f 94 c0             	sete   al
    1d1d:	84 c0                	test   al,al
    1d1f:	74 13                	je     1d34 <_Z9ascii_artNSt7__cxx1112basic_stringIcSt11char_traitsIcESaIcEEE+0xa4b>
    1d21:	48 8d 35 be 73 00 00 	lea    rsi,[rip+0x73be]        # 90e6 <_ZStL19piecewise_construct+0xde>
    1d28:	48 8d 3d 11 93 00 00 	lea    rdi,[rip+0x9311]        # b040 <_ZSt4cout@@GLIBCXX_3.4>
    1d2f:	e8 3c f4 ff ff       	call   1170 <_ZStlsISt11char_traitsIcEERSt13basic_ostreamIcT_ES5_PKc@plt>
    1d34:	8b 45 a8             	mov    eax,DWORD PTR [rbp-0x58]
    1d37:	48 63 d0             	movsxd rdx,eax
    1d3a:	48 8d 45 c0          	lea    rax,[rbp-0x40]
    1d3e:	48 89 d6             	mov    rsi,rdx
    1d41:	48 89 c7             	mov    rdi,rax
    1d44:	e8 a7 f4 ff ff       	call   11f0 <_ZNSt7__cxx1112basic_stringIcSt11char_traitsIcESaIcEEixEm@plt>
    1d49:	0f b6 00             	movzx  eax,BYTE PTR [rax]
    1d4c:	3c 7e                	cmp    al,0x7e
    1d4e:	0f 94 c0             	sete   al
    1d51:	84 c0                	test   al,al
    1d53:	74 13                	je     1d68 <_Z9ascii_artNSt7__cxx1112basic_stringIcSt11char_traitsIcESaIcEEE+0xa7f>
    1d55:	48 8d 35 8f 73 00 00 	lea    rsi,[rip+0x738f]        # 90eb <_ZStL19piecewise_construct+0xe3>
    1d5c:	48 8d 3d dd 92 00 00 	lea    rdi,[rip+0x92dd]        # b040 <_ZSt4cout@@GLIBCXX_3.4>
    1d63:	e8 08 f4 ff ff       	call   1170 <_ZStlsISt11char_traitsIcEERSt13basic_ostreamIcT_ES5_PKc@plt>
    1d68:	8b 45 a8             	mov    eax,DWORD PTR [rbp-0x58]
    1d6b:	48 63 d0             	movsxd rdx,eax
    1d6e:	48 8d 45 c0          	lea    rax,[rbp-0x40]
    1d72:	48 89 d6             	mov    rsi,rdx
    1d75:	48 89 c7             	mov    rdi,rax
    1d78:	e8 73 f4 ff ff       	call   11f0 <_ZNSt7__cxx1112basic_stringIcSt11char_traitsIcESaIcEEixEm@plt>
    1d7d:	0f b6 00             	movzx  eax,BYTE PTR [rax]
    1d80:	3c 31                	cmp    al,0x31
    1d82:	0f 94 c0             	sete   al
    1d85:	84 c0                	test   al,al
    1d87:	74 13                	je     1d9c <_Z9ascii_artNSt7__cxx1112basic_stringIcSt11char_traitsIcESaIcEEE+0xab3>
    1d89:	48 8d 35 62 73 00 00 	lea    rsi,[rip+0x7362]        # 90f2 <_ZStL19piecewise_construct+0xea>
    1d90:	48 8d 3d a9 92 00 00 	lea    rdi,[rip+0x92a9]        # b040 <_ZSt4cout@@GLIBCXX_3.4>
    1d97:	e8 d4 f3 ff ff       	call   1170 <_ZStlsISt11char_traitsIcEERSt13basic_ostreamIcT_ES5_PKc@plt>
    1d9c:	8b 45 a8             	mov    eax,DWORD PTR [rbp-0x58]
    1d9f:	48 63 d0             	movsxd rdx,eax
    1da2:	48 8d 45 c0          	lea    rax,[rbp-0x40]
    1da6:	48 89 d6             	mov    rsi,rdx
    1da9:	48 89 c7             	mov    rdi,rax
    1dac:	e8 3f f4 ff ff       	call   11f0 <_ZNSt7__cxx1112basic_stringIcSt11char_traitsIcESaIcEEixEm@plt>
    1db1:	0f b6 00             	movzx  eax,BYTE PTR [rax]
    1db4:	3c 32                	cmp    al,0x32
    1db6:	0f 94 c0             	sete   al
    1db9:	84 c0                	test   al,al
    1dbb:	74 13                	je     1dd0 <_Z9ascii_artNSt7__cxx1112basic_stringIcSt11char_traitsIcESaIcEEE+0xae7>
    1dbd:	48 8d 35 cc 72 00 00 	lea    rsi,[rip+0x72cc]        # 9090 <_ZStL19piecewise_construct+0x88>
    1dc4:	48 8d 3d 75 92 00 00 	lea    rdi,[rip+0x9275]        # b040 <_ZSt4cout@@GLIBCXX_3.4>
    1dcb:	e8 a0 f3 ff ff       	call   1170 <_ZStlsISt11char_traitsIcEERSt13basic_ostreamIcT_ES5_PKc@plt>
    1dd0:	8b 45 a8             	mov    eax,DWORD PTR [rbp-0x58]
    1dd3:	48 63 d0             	movsxd rdx,eax
    1dd6:	48 8d 45 c0          	lea    rax,[rbp-0x40]
    1dda:	48 89 d6             	mov    rsi,rdx
    1ddd:	48 89 c7             	mov    rdi,rax
    1de0:	e8 0b f4 ff ff       	call   11f0 <_ZNSt7__cxx1112basic_stringIcSt11char_traitsIcESaIcEEixEm@plt>
    1de5:	0f b6 00             	movzx  eax,BYTE PTR [rax]
    1de8:	3c 33                	cmp    al,0x33
    1dea:	0f 94 c0             	sete   al
    1ded:	84 c0                	test   al,al
    1def:	74 13                	je     1e04 <_Z9ascii_artNSt7__cxx1112basic_stringIcSt11char_traitsIcESaIcEEE+0xb1b>
    1df1:	48 8d 35 98 72 00 00 	lea    rsi,[rip+0x7298]        # 9090 <_ZStL19piecewise_construct+0x88>
    1df8:	48 8d 3d 41 92 00 00 	lea    rdi,[rip+0x9241]        # b040 <_ZSt4cout@@GLIBCXX_3.4>
    1dff:	e8 6c f3 ff ff       	call   1170 <_ZStlsISt11char_traitsIcEERSt13basic_ostreamIcT_ES5_PKc@plt>
    1e04:	8b 45 a8             	mov    eax,DWORD PTR [rbp-0x58]
    1e07:	48 63 d0             	movsxd rdx,eax
    1e0a:	48 8d 45 c0          	lea    rax,[rbp-0x40]
    1e0e:	48 89 d6             	mov    rsi,rdx
    1e11:	48 89 c7             	mov    rdi,rax
    1e14:	e8 d7 f3 ff ff       	call   11f0 <_ZNSt7__cxx1112basic_stringIcSt11char_traitsIcESaIcEEixEm@plt>
    1e19:	0f b6 00             	movzx  eax,BYTE PTR [rax]
    1e1c:	3c 34                	cmp    al,0x34
    1e1e:	0f 94 c0             	sete   al
    1e21:	84 c0                	test   al,al
    1e23:	74 13                	je     1e38 <_Z9ascii_artNSt7__cxx1112basic_stringIcSt11char_traitsIcESaIcEEE+0xb4f>
    1e25:	48 8d 35 76 72 00 00 	lea    rsi,[rip+0x7276]        # 90a2 <_ZStL19piecewise_construct+0x9a>
    1e2c:	48 8d 3d 0d 92 00 00 	lea    rdi,[rip+0x920d]        # b040 <_ZSt4cout@@GLIBCXX_3.4>
    1e33:	e8 38 f3 ff ff       	call   1170 <_ZStlsISt11char_traitsIcEERSt13basic_ostreamIcT_ES5_PKc@plt>
    1e38:	8b 45 a8             	mov    eax,DWORD PTR [rbp-0x58]
    1e3b:	48 63 d0             	movsxd rdx,eax
    1e3e:	48 8d 45 c0          	lea    rax,[rbp-0x40]
    1e42:	48 89 d6             	mov    rsi,rdx
    1e45:	48 89 c7             	mov    rdi,rax
    1e48:	e8 a3 f3 ff ff       	call   11f0 <_ZNSt7__cxx1112basic_stringIcSt11char_traitsIcESaIcEEixEm@plt>
    1e4d:	0f b6 00             	movzx  eax,BYTE PTR [rax]
    1e50:	3c 35                	cmp    al,0x35
    1e52:	0f 94 c0             	sete   al
    1e55:	84 c0                	test   al,al
    1e57:	74 13                	je     1e6c <_Z9ascii_artNSt7__cxx1112basic_stringIcSt11char_traitsIcESaIcEEE+0xb83>
    1e59:	48 8d 35 30 72 00 00 	lea    rsi,[rip+0x7230]        # 9090 <_ZStL19piecewise_construct+0x88>
    1e60:	48 8d 3d d9 91 00 00 	lea    rdi,[rip+0x91d9]        # b040 <_ZSt4cout@@GLIBCXX_3.4>
    1e67:	e8 04 f3 ff ff       	call   1170 <_ZStlsISt11char_traitsIcEERSt13basic_ostreamIcT_ES5_PKc@plt>
    1e6c:	8b 45 a8             	mov    eax,DWORD PTR [rbp-0x58]
    1e6f:	48 63 d0             	movsxd rdx,eax
    1e72:	48 8d 45 c0          	lea    rax,[rbp-0x40]
    1e76:	48 89 d6             	mov    rsi,rdx
    1e79:	48 89 c7             	mov    rdi,rax
    1e7c:	e8 6f f3 ff ff       	call   11f0 <_ZNSt7__cxx1112basic_stringIcSt11char_traitsIcESaIcEEixEm@plt>
    1e81:	0f b6 00             	movzx  eax,BYTE PTR [rax]
    1e84:	3c 36                	cmp    al,0x36
    1e86:	0f 94 c0             	sete   al
    1e89:	84 c0                	test   al,al
    1e8b:	74 13                	je     1ea0 <_Z9ascii_artNSt7__cxx1112basic_stringIcSt11char_traitsIcESaIcEEE+0xbb7>
    1e8d:	48 8d 35 65 72 00 00 	lea    rsi,[rip+0x7265]        # 90f9 <_ZStL19piecewise_construct+0xf1>
    1e94:	48 8d 3d a5 91 00 00 	lea    rdi,[rip+0x91a5]        # b040 <_ZSt4cout@@GLIBCXX_3.4>
    1e9b:	e8 d0 f2 ff ff       	call   1170 <_ZStlsISt11char_traitsIcEERSt13basic_ostreamIcT_ES5_PKc@plt>
    1ea0:	8b 45 a8             	mov    eax,DWORD PTR [rbp-0x58]
    1ea3:	48 63 d0             	movsxd rdx,eax
    1ea6:	48 8d 45 c0          	lea    rax,[rbp-0x40]
    1eaa:	48 89 d6             	mov    rsi,rdx
    1ead:	48 89 c7             	mov    rdi,rax
    1eb0:	e8 3b f3 ff ff       	call   11f0 <_ZNSt7__cxx1112basic_stringIcSt11char_traitsIcESaIcEEixEm@plt>
    1eb5:	0f b6 00             	movzx  eax,BYTE PTR [rax]
    1eb8:	3c 37                	cmp    al,0x37
    1eba:	0f 94 c0             	sete   al
    1ebd:	84 c0                	test   al,al
    1ebf:	74 13                	je     1ed4 <_Z9ascii_artNSt7__cxx1112basic_stringIcSt11char_traitsIcESaIcEEE+0xbeb>
    1ec1:	48 8d 35 12 72 00 00 	lea    rsi,[rip+0x7212]        # 90da <_ZStL19piecewise_construct+0xd2>
    1ec8:	48 8d 3d 71 91 00 00 	lea    rdi,[rip+0x9171]        # b040 <_ZSt4cout@@GLIBCXX_3.4>
    1ecf:	e8 9c f2 ff ff       	call   1170 <_ZStlsISt11char_traitsIcEERSt13basic_ostreamIcT_ES5_PKc@plt>
    1ed4:	8b 45 a8             	mov    eax,DWORD PTR [rbp-0x58]
    1ed7:	48 63 d0             	movsxd rdx,eax
    1eda:	48 8d 45 c0          	lea    rax,[rbp-0x40]
    1ede:	48 89 d6             	mov    rsi,rdx
    1ee1:	48 89 c7             	mov    rdi,rax
    1ee4:	e8 07 f3 ff ff       	call   11f0 <_ZNSt7__cxx1112basic_stringIcSt11char_traitsIcESaIcEEixEm@plt>
    1ee9:	0f b6 00             	movzx  eax,BYTE PTR [rax]
    1eec:	3c 2e                	cmp    al,0x2e
    1eee:	0f 94 c0             	sete   al
    1ef1:	84 c0                	test   al,al
    1ef3:	74 13                	je     1f08 <_Z9ascii_artNSt7__cxx1112basic_stringIcSt11char_traitsIcESaIcEEE+0xc1f>
    1ef5:	48 8d 35 06 72 00 00 	lea    rsi,[rip+0x7206]        # 9102 <_ZStL19piecewise_construct+0xfa>
    1efc:	48 8d 3d 3d 91 00 00 	lea    rdi,[rip+0x913d]        # b040 <_ZSt4cout@@GLIBCXX_3.4>
    1f03:	e8 68 f2 ff ff       	call   1170 <_ZStlsISt11char_traitsIcEERSt13basic_ostreamIcT_ES5_PKc@plt>
    1f08:	8b 45 a8             	mov    eax,DWORD PTR [rbp-0x58]
    1f0b:	48 63 d0             	movsxd rdx,eax
    1f0e:	48 8d 45 c0          	lea    rax,[rbp-0x40]
    1f12:	48 89 d6             	mov    rsi,rdx
    1f15:	48 89 c7             	mov    rdi,rax
    1f18:	e8 d3 f2 ff ff       	call   11f0 <_ZNSt7__cxx1112basic_stringIcSt11char_traitsIcESaIcEEixEm@plt>
    1f1d:	0f b6 00             	movzx  eax,BYTE PTR [rax]
    1f20:	3c 38                	cmp    al,0x38
    1f22:	0f 94 c0             	sete   al
    1f25:	84 c0                	test   al,al
    1f27:	74 13                	je     1f3c <_Z9ascii_artNSt7__cxx1112basic_stringIcSt11char_traitsIcESaIcEEE+0xc53>
    1f29:	48 8d 35 60 71 00 00 	lea    rsi,[rip+0x7160]        # 9090 <_ZStL19piecewise_construct+0x88>
    1f30:	48 8d 3d 09 91 00 00 	lea    rdi,[rip+0x9109]        # b040 <_ZSt4cout@@GLIBCXX_3.4>
    1f37:	e8 34 f2 ff ff       	call   1170 <_ZStlsISt11char_traitsIcEERSt13basic_ostreamIcT_ES5_PKc@plt>
    1f3c:	8b 45 a8             	mov    eax,DWORD PTR [rbp-0x58]
    1f3f:	48 63 d0             	movsxd rdx,eax
    1f42:	48 8d 45 c0          	lea    rax,[rbp-0x40]
    1f46:	48 89 d6             	mov    rsi,rdx
    1f49:	48 89 c7             	mov    rdi,rax
    1f4c:	e8 9f f2 ff ff       	call   11f0 <_ZNSt7__cxx1112basic_stringIcSt11char_traitsIcESaIcEEixEm@plt>
    1f51:	0f b6 00             	movzx  eax,BYTE PTR [rax]
    1f54:	3c 39                	cmp    al,0x39
    1f56:	0f 94 c0             	sete   al
    1f59:	84 c0                	test   al,al
    1f5b:	74 13                	je     1f70 <_Z9ascii_artNSt7__cxx1112basic_stringIcSt11char_traitsIcESaIcEEE+0xc87>
    1f5d:	48 8d 35 2c 71 00 00 	lea    rsi,[rip+0x712c]        # 9090 <_ZStL19piecewise_construct+0x88>
    1f64:	48 8d 3d d5 90 00 00 	lea    rdi,[rip+0x90d5]        # b040 <_ZSt4cout@@GLIBCXX_3.4>
    1f6b:	e8 00 f2 ff ff       	call   1170 <_ZStlsISt11char_traitsIcEERSt13basic_ostreamIcT_ES5_PKc@plt>
    1f70:	8b 45 a8             	mov    eax,DWORD PTR [rbp-0x58]
    1f73:	48 63 d0             	movsxd rdx,eax
    1f76:	48 8d 45 c0          	lea    rax,[rbp-0x40]
    1f7a:	48 89 d6             	mov    rsi,rdx
    1f7d:	48 89 c7             	mov    rdi,rax
    1f80:	e8 6b f2 ff ff       	call   11f0 <_ZNSt7__cxx1112basic_stringIcSt11char_traitsIcESaIcEEixEm@plt>
    1f85:	0f b6 00             	movzx  eax,BYTE PTR [rax]
    1f88:	3c 30                	cmp    al,0x30
    1f8a:	0f 94 c0             	sete   al
    1f8d:	84 c0                	test   al,al
    1f8f:	74 13                	je     1fa4 <_Z9ascii_artNSt7__cxx1112basic_stringIcSt11char_traitsIcESaIcEEE+0xcbb>
    1f91:	48 8d 35 f8 70 00 00 	lea    rsi,[rip+0x70f8]        # 9090 <_ZStL19piecewise_construct+0x88>
    1f98:	48 8d 3d a1 90 00 00 	lea    rdi,[rip+0x90a1]        # b040 <_ZSt4cout@@GLIBCXX_3.4>
    1f9f:	e8 cc f1 ff ff       	call   1170 <_ZStlsISt11char_traitsIcEERSt13basic_ostreamIcT_ES5_PKc@plt>
    1fa4:	8b 45 a8             	mov    eax,DWORD PTR [rbp-0x58]
    1fa7:	48 63 d0             	movsxd rdx,eax
    1faa:	48 8d 45 c0          	lea    rax,[rbp-0x40]
    1fae:	48 89 d6             	mov    rsi,rdx
    1fb1:	48 89 c7             	mov    rdi,rax
    1fb4:	e8 37 f2 ff ff       	call   11f0 <_ZNSt7__cxx1112basic_stringIcSt11char_traitsIcESaIcEEixEm@plt>
    1fb9:	0f b6 00             	movzx  eax,BYTE PTR [rax]
    1fbc:	3c 21                	cmp    al,0x21
    1fbe:	0f 94 c0             	sete   al
    1fc1:	84 c0                	test   al,al
    1fc3:	74 13                	je     1fd8 <_Z9ascii_artNSt7__cxx1112basic_stringIcSt11char_traitsIcESaIcEEE+0xcef>
    1fc5:	48 8d 35 1a 71 00 00 	lea    rsi,[rip+0x711a]        # 90e6 <_ZStL19piecewise_construct+0xde>
    1fcc:	48 8d 3d 6d 90 00 00 	lea    rdi,[rip+0x906d]        # b040 <_ZSt4cout@@GLIBCXX_3.4>
    1fd3:	e8 98 f1 ff ff       	call   1170 <_ZStlsISt11char_traitsIcEERSt13basic_ostreamIcT_ES5_PKc@plt>
    1fd8:	8b 45 a8             	mov    eax,DWORD PTR [rbp-0x58]
    1fdb:	48 63 d0             	movsxd rdx,eax
    1fde:	48 8d 45 c0          	lea    rax,[rbp-0x40]
    1fe2:	48 89 d6             	mov    rsi,rdx
    1fe5:	48 89 c7             	mov    rdi,rax
    1fe8:	e8 03 f2 ff ff       	call   11f0 <_ZNSt7__cxx1112basic_stringIcSt11char_traitsIcESaIcEEixEm@plt>
    1fed:	0f b6 00             	movzx  eax,BYTE PTR [rax]
    1ff0:	3c 40                	cmp    al,0x40
    1ff2:	0f 94 c0             	sete   al
    1ff5:	84 c0                	test   al,al
    1ff7:	74 13                	je     200c <_Z9ascii_artNSt7__cxx1112basic_stringIcSt11char_traitsIcESaIcEEE+0xd23>
    1ff9:	48 8d 35 07 71 00 00 	lea    rsi,[rip+0x7107]        # 9107 <_ZStL19piecewise_construct+0xff>
    2000:	48 8d 3d 39 90 00 00 	lea    rdi,[rip+0x9039]        # b040 <_ZSt4cout@@GLIBCXX_3.4>
    2007:	e8 64 f1 ff ff       	call   1170 <_ZStlsISt11char_traitsIcEERSt13basic_ostreamIcT_ES5_PKc@plt>
    200c:	8b 45 a8             	mov    eax,DWORD PTR [rbp-0x58]
    200f:	48 63 d0             	movsxd rdx,eax
    2012:	48 8d 45 c0          	lea    rax,[rbp-0x40]
    2016:	48 89 d6             	mov    rsi,rdx
    2019:	48 89 c7             	mov    rdi,rax
    201c:	e8 cf f1 ff ff       	call   11f0 <_ZNSt7__cxx1112basic_stringIcSt11char_traitsIcESaIcEEixEm@plt>
    2021:	0f b6 00             	movzx  eax,BYTE PTR [rax]
    2024:	3c 23                	cmp    al,0x23
    2026:	0f 94 c0             	sete   al
    2029:	84 c0                	test   al,al
    202b:	74 13                	je     2040 <_Z9ascii_artNSt7__cxx1112basic_stringIcSt11char_traitsIcESaIcEEE+0xd57>
    202d:	48 8d 35 de 70 00 00 	lea    rsi,[rip+0x70de]        # 9112 <_ZStL19piecewise_construct+0x10a>
    2034:	48 8d 3d 05 90 00 00 	lea    rdi,[rip+0x9005]        # b040 <_ZSt4cout@@GLIBCXX_3.4>
    203b:	e8 30 f1 ff ff       	call   1170 <_ZStlsISt11char_traitsIcEERSt13basic_ostreamIcT_ES5_PKc@plt>
    2040:	8b 45 a8             	mov    eax,DWORD PTR [rbp-0x58]
    2043:	48 63 d0             	movsxd rdx,eax
    2046:	48 8d 45 c0          	lea    rax,[rbp-0x40]
    204a:	48 89 d6             	mov    rsi,rdx
    204d:	48 89 c7             	mov    rdi,rax
    2050:	e8 9b f1 ff ff       	call   11f0 <_ZNSt7__cxx1112basic_stringIcSt11char_traitsIcESaIcEEixEm@plt>
    2055:	0f b6 00             	movzx  eax,BYTE PTR [rax]
    2058:	3c 24                	cmp    al,0x24
    205a:	0f 94 c0             	sete   al
    205d:	84 c0                	test   al,al
    205f:	74 13                	je     2074 <_Z9ascii_artNSt7__cxx1112basic_stringIcSt11char_traitsIcESaIcEEE+0xd8b>
    2061:	48 8d 35 b6 70 00 00 	lea    rsi,[rip+0x70b6]        # 911e <_ZStL19piecewise_construct+0x116>
    2068:	48 8d 3d d1 8f 00 00 	lea    rdi,[rip+0x8fd1]        # b040 <_ZSt4cout@@GLIBCXX_3.4>
    206f:	e8 fc f0 ff ff       	call   1170 <_ZStlsISt11char_traitsIcEERSt13basic_ostreamIcT_ES5_PKc@plt>
    2074:	8b 45 a8             	mov    eax,DWORD PTR [rbp-0x58]
    2077:	48 63 d0             	movsxd rdx,eax
    207a:	48 8d 45 c0          	lea    rax,[rbp-0x40]
    207e:	48 89 d6             	mov    rsi,rdx
    2081:	48 89 c7             	mov    rdi,rax
    2084:	e8 67 f1 ff ff       	call   11f0 <_ZNSt7__cxx1112basic_stringIcSt11char_traitsIcESaIcEEixEm@plt>
    2089:	0f b6 00             	movzx  eax,BYTE PTR [rax]
    208c:	3c 25                	cmp    al,0x25
    208e:	0f 94 c0             	sete   al
    2091:	84 c0                	test   al,al
    2093:	74 13                	je     20a8 <_Z9ascii_artNSt7__cxx1112basic_stringIcSt11char_traitsIcESaIcEEE+0xdbf>
    2095:	48 8d 35 0f 70 00 00 	lea    rsi,[rip+0x700f]        # 90ab <_ZStL19piecewise_construct+0xa3>
    209c:	48 8d 3d 9d 8f 00 00 	lea    rdi,[rip+0x8f9d]        # b040 <_ZSt4cout@@GLIBCXX_3.4>
    20a3:	e8 c8 f0 ff ff       	call   1170 <_ZStlsISt11char_traitsIcEERSt13basic_ostreamIcT_ES5_PKc@plt>
    20a8:	8b 45 a8             	mov    eax,DWORD PTR [rbp-0x58]
    20ab:	48 63 d0             	movsxd rdx,eax
    20ae:	48 8d 45 c0          	lea    rax,[rbp-0x40]
    20b2:	48 89 d6             	mov    rsi,rdx
    20b5:	48 89 c7             	mov    rdi,rax
    20b8:	e8 33 f1 ff ff       	call   11f0 <_ZNSt7__cxx1112basic_stringIcSt11char_traitsIcESaIcEEixEm@plt>
    20bd:	0f b6 00             	movzx  eax,BYTE PTR [rax]
    20c0:	3c 5e                	cmp    al,0x5e
    20c2:	0f 94 c0             	sete   al
    20c5:	84 c0                	test   al,al
    20c7:	74 13                	je     20dc <_Z9ascii_artNSt7__cxx1112basic_stringIcSt11char_traitsIcESaIcEEE+0xdf3>
    20c9:	48 8d 35 55 70 00 00 	lea    rsi,[rip+0x7055]        # 9125 <_ZStL19piecewise_construct+0x11d>
    20d0:	48 8d 3d 69 8f 00 00 	lea    rdi,[rip+0x8f69]        # b040 <_ZSt4cout@@GLIBCXX_3.4>
    20d7:	e8 94 f0 ff ff       	call   1170 <_ZStlsISt11char_traitsIcEERSt13basic_ostreamIcT_ES5_PKc@plt>
    20dc:	8b 45 a8             	mov    eax,DWORD PTR [rbp-0x58]
    20df:	48 63 d0             	movsxd rdx,eax
    20e2:	48 8d 45 c0          	lea    rax,[rbp-0x40]
    20e6:	48 89 d6             	mov    rsi,rdx
    20e9:	48 89 c7             	mov    rdi,rax
    20ec:	e8 ff f0 ff ff       	call   11f0 <_ZNSt7__cxx1112basic_stringIcSt11char_traitsIcESaIcEEixEm@plt>
    20f1:	0f b6 00             	movzx  eax,BYTE PTR [rax]
    20f4:	3c 26                	cmp    al,0x26
    20f6:	0f 94 c0             	sete   al
    20f9:	84 c0                	test   al,al
    20fb:	74 13                	je     2110 <_Z9ascii_artNSt7__cxx1112basic_stringIcSt11char_traitsIcESaIcEEE+0xe27>
    20fd:	48 8d 35 27 70 00 00 	lea    rsi,[rip+0x7027]        # 912b <_ZStL19piecewise_construct+0x123>
    2104:	48 8d 3d 35 8f 00 00 	lea    rdi,[rip+0x8f35]        # b040 <_ZSt4cout@@GLIBCXX_3.4>
    210b:	e8 60 f0 ff ff       	call   1170 <_ZStlsISt11char_traitsIcEERSt13basic_ostreamIcT_ES5_PKc@plt>
    2110:	8b 45 a8             	mov    eax,DWORD PTR [rbp-0x58]
    2113:	48 63 d0             	movsxd rdx,eax
    2116:	48 8d 45 c0          	lea    rax,[rbp-0x40]
    211a:	48 89 d6             	mov    rsi,rdx
    211d:	48 89 c7             	mov    rdi,rax
    2120:	e8 cb f0 ff ff       	call   11f0 <_ZNSt7__cxx1112basic_stringIcSt11char_traitsIcESaIcEEixEm@plt>
    2125:	0f b6 00             	movzx  eax,BYTE PTR [rax]
    2128:	3c 2a                	cmp    al,0x2a
    212a:	0f 94 c0             	sete   al
    212d:	84 c0                	test   al,al
    212f:	74 13                	je     2144 <_Z9ascii_artNSt7__cxx1112basic_stringIcSt11char_traitsIcESaIcEEE+0xe5b>
    2131:	48 8d 35 fd 6f 00 00 	lea    rsi,[rip+0x6ffd]        # 9135 <_ZStL19piecewise_construct+0x12d>
    2138:	48 8d 3d 01 8f 00 00 	lea    rdi,[rip+0x8f01]        # b040 <_ZSt4cout@@GLIBCXX_3.4>
    213f:	e8 2c f0 ff ff       	call   1170 <_ZStlsISt11char_traitsIcEERSt13basic_ostreamIcT_ES5_PKc@plt>
    2144:	8b 45 a8             	mov    eax,DWORD PTR [rbp-0x58]
    2147:	48 63 d0             	movsxd rdx,eax
    214a:	48 8d 45 c0          	lea    rax,[rbp-0x40]
    214e:	48 89 d6             	mov    rsi,rdx
    2151:	48 89 c7             	mov    rdi,rax
    2154:	e8 97 f0 ff ff       	call   11f0 <_ZNSt7__cxx1112basic_stringIcSt11char_traitsIcESaIcEEixEm@plt>
    2159:	0f b6 00             	movzx  eax,BYTE PTR [rax]
    215c:	3c 28                	cmp    al,0x28
    215e:	0f 94 c0             	sete   al
    2161:	84 c0                	test   al,al
    2163:	74 13                	je     2178 <_Z9ascii_artNSt7__cxx1112basic_stringIcSt11char_traitsIcESaIcEEE+0xe8f>
    2165:	48 8d 35 d4 6f 00 00 	lea    rsi,[rip+0x6fd4]        # 9140 <_ZStL19piecewise_construct+0x138>
    216c:	48 8d 3d cd 8e 00 00 	lea    rdi,[rip+0x8ecd]        # b040 <_ZSt4cout@@GLIBCXX_3.4>
    2173:	e8 f8 ef ff ff       	call   1170 <_ZStlsISt11char_traitsIcEERSt13basic_ostreamIcT_ES5_PKc@plt>
    2178:	8b 45 a8             	mov    eax,DWORD PTR [rbp-0x58]
    217b:	48 63 d0             	movsxd rdx,eax
    217e:	48 8d 45 c0          	lea    rax,[rbp-0x40]
    2182:	48 89 d6             	mov    rsi,rdx
    2185:	48 89 c7             	mov    rdi,rax
    2188:	e8 63 f0 ff ff       	call   11f0 <_ZNSt7__cxx1112basic_stringIcSt11char_traitsIcESaIcEEixEm@plt>
    218d:	0f b6 00             	movzx  eax,BYTE PTR [rax]
    2190:	3c 29                	cmp    al,0x29
    2192:	0f 94 c0             	sete   al
    2195:	84 c0                	test   al,al
    2197:	74 13                	je     21ac <_Z9ascii_artNSt7__cxx1112basic_stringIcSt11char_traitsIcESaIcEEE+0xec3>
    2199:	48 8d 35 a6 6f 00 00 	lea    rsi,[rip+0x6fa6]        # 9146 <_ZStL19piecewise_construct+0x13e>
    21a0:	48 8d 3d 99 8e 00 00 	lea    rdi,[rip+0x8e99]        # b040 <_ZSt4cout@@GLIBCXX_3.4>
    21a7:	e8 c4 ef ff ff       	call   1170 <_ZStlsISt11char_traitsIcEERSt13basic_ostreamIcT_ES5_PKc@plt>
    21ac:	8b 45 a8             	mov    eax,DWORD PTR [rbp-0x58]
    21af:	48 63 d0             	movsxd rdx,eax
    21b2:	48 8d 45 c0          	lea    rax,[rbp-0x40]
    21b6:	48 89 d6             	mov    rsi,rdx
    21b9:	48 89 c7             	mov    rdi,rax
    21bc:	e8 2f f0 ff ff       	call   11f0 <_ZNSt7__cxx1112basic_stringIcSt11char_traitsIcESaIcEEixEm@plt>
    21c1:	0f b6 00             	movzx  eax,BYTE PTR [rax]
    21c4:	3c 2d                	cmp    al,0x2d
    21c6:	0f 94 c0             	sete   al
    21c9:	84 c0                	test   al,al
    21cb:	74 13                	je     21e0 <_Z9ascii_artNSt7__cxx1112basic_stringIcSt11char_traitsIcESaIcEEE+0xef7>
    21cd:	48 8d 35 57 6f 00 00 	lea    rsi,[rip+0x6f57]        # 912b <_ZStL19piecewise_construct+0x123>
    21d4:	48 8d 3d 65 8e 00 00 	lea    rdi,[rip+0x8e65]        # b040 <_ZSt4cout@@GLIBCXX_3.4>
    21db:	e8 90 ef ff ff       	call   1170 <_ZStlsISt11char_traitsIcEERSt13basic_ostreamIcT_ES5_PKc@plt>
    21e0:	8b 45 a8             	mov    eax,DWORD PTR [rbp-0x58]
    21e3:	48 63 d0             	movsxd rdx,eax
    21e6:	48 8d 45 c0          	lea    rax,[rbp-0x40]
    21ea:	48 89 d6             	mov    rsi,rdx
    21ed:	48 89 c7             	mov    rdi,rax
    21f0:	e8 fb ef ff ff       	call   11f0 <_ZNSt7__cxx1112basic_stringIcSt11char_traitsIcESaIcEEixEm@plt>
    21f5:	0f b6 00             	movzx  eax,BYTE PTR [rax]
    21f8:	3c 5f                	cmp    al,0x5f
    21fa:	0f 94 c0             	sete   al
    21fd:	84 c0                	test   al,al
    21ff:	74 13                	je     2214 <_Z9ascii_artNSt7__cxx1112basic_stringIcSt11char_traitsIcESaIcEEE+0xf2b>
    2201:	48 8d 35 23 6f 00 00 	lea    rsi,[rip+0x6f23]        # 912b <_ZStL19piecewise_construct+0x123>
    2208:	48 8d 3d 31 8e 00 00 	lea    rdi,[rip+0x8e31]        # b040 <_ZSt4cout@@GLIBCXX_3.4>
    220f:	e8 5c ef ff ff       	call   1170 <_ZStlsISt11char_traitsIcEERSt13basic_ostreamIcT_ES5_PKc@plt>
    2214:	8b 45 a8             	mov    eax,DWORD PTR [rbp-0x58]
    2217:	48 63 d0             	movsxd rdx,eax
    221a:	48 8d 45 c0          	lea    rax,[rbp-0x40]
    221e:	48 89 d6             	mov    rsi,rdx
    2221:	48 89 c7             	mov    rdi,rax
    2224:	e8 c7 ef ff ff       	call   11f0 <_ZNSt7__cxx1112basic_stringIcSt11char_traitsIcESaIcEEixEm@plt>
    2229:	0f b6 00             	movzx  eax,BYTE PTR [rax]
    222c:	3c 3d                	cmp    al,0x3d
    222e:	0f 94 c0             	sete   al
    2231:	84 c0                	test   al,al
    2233:	74 13                	je     2248 <_Z9ascii_artNSt7__cxx1112basic_stringIcSt11char_traitsIcESaIcEEE+0xf5f>
    2235:	48 8d 35 ef 6e 00 00 	lea    rsi,[rip+0x6eef]        # 912b <_ZStL19piecewise_construct+0x123>
    223c:	48 8d 3d fd 8d 00 00 	lea    rdi,[rip+0x8dfd]        # b040 <_ZSt4cout@@GLIBCXX_3.4>
    2243:	e8 28 ef ff ff       	call   1170 <_ZStlsISt11char_traitsIcEERSt13basic_ostreamIcT_ES5_PKc@plt>
    2248:	8b 45 a8             	mov    eax,DWORD PTR [rbp-0x58]
    224b:	48 63 d0             	movsxd rdx,eax
    224e:	48 8d 45 c0          	lea    rax,[rbp-0x40]
    2252:	48 89 d6             	mov    rsi,rdx
    2255:	48 89 c7             	mov    rdi,rax
    2258:	e8 93 ef ff ff       	call   11f0 <_ZNSt7__cxx1112basic_stringIcSt11char_traitsIcESaIcEEixEm@plt>
    225d:	0f b6 00             	movzx  eax,BYTE PTR [rax]
    2260:	3c 2b                	cmp    al,0x2b
    2262:	0f 94 c0             	sete   al
    2265:	84 c0                	test   al,al
    2267:	74 13                	je     227c <_Z9ascii_artNSt7__cxx1112basic_stringIcSt11char_traitsIcESaIcEEE+0xf93>
    2269:	48 8d 35 dc 6e 00 00 	lea    rsi,[rip+0x6edc]        # 914c <_ZStL19piecewise_construct+0x144>
    2270:	48 8d 3d c9 8d 00 00 	lea    rdi,[rip+0x8dc9]        # b040 <_ZSt4cout@@GLIBCXX_3.4>
    2277:	e8 f4 ee ff ff       	call   1170 <_ZStlsISt11char_traitsIcEERSt13basic_ostreamIcT_ES5_PKc@plt>
    227c:	8b 45 a8             	mov    eax,DWORD PTR [rbp-0x58]
    227f:	48 63 d0             	movsxd rdx,eax
    2282:	48 8d 45 c0          	lea    rax,[rbp-0x40]
    2286:	48 89 d6             	mov    rsi,rdx
    2289:	48 89 c7             	mov    rdi,rax
    228c:	e8 5f ef ff ff       	call   11f0 <_ZNSt7__cxx1112basic_stringIcSt11char_traitsIcESaIcEEixEm@plt>
    2291:	0f b6 00             	movzx  eax,BYTE PTR [rax]
    2294:	3c 5b                	cmp    al,0x5b
    2296:	0f 94 c0             	sete   al
    2299:	84 c0                	test   al,al
    229b:	74 13                	je     22b0 <_Z9ascii_artNSt7__cxx1112basic_stringIcSt11char_traitsIcESaIcEEE+0xfc7>
    229d:	48 8d 35 b1 6e 00 00 	lea    rsi,[rip+0x6eb1]        # 9155 <_ZStL19piecewise_construct+0x14d>
    22a4:	48 8d 3d 95 8d 00 00 	lea    rdi,[rip+0x8d95]        # b040 <_ZSt4cout@@GLIBCXX_3.4>
    22ab:	e8 c0 ee ff ff       	call   1170 <_ZStlsISt11char_traitsIcEERSt13basic_ostreamIcT_ES5_PKc@plt>
    22b0:	8b 45 a8             	mov    eax,DWORD PTR [rbp-0x58]
    22b3:	48 63 d0             	movsxd rdx,eax
    22b6:	48 8d 45 c0          	lea    rax,[rbp-0x40]
    22ba:	48 89 d6             	mov    rsi,rdx
    22bd:	48 89 c7             	mov    rdi,rax
    22c0:	e8 2b ef ff ff       	call   11f0 <_ZNSt7__cxx1112basic_stringIcSt11char_traitsIcESaIcEEixEm@plt>
    22c5:	0f b6 00             	movzx  eax,BYTE PTR [rax]
    22c8:	3c 7b                	cmp    al,0x7b
    22ca:	0f 94 c0             	sete   al
    22cd:	84 c0                	test   al,al
    22cf:	74 13                	je     22e4 <_Z9ascii_artNSt7__cxx1112basic_stringIcSt11char_traitsIcESaIcEEE+0xffb>
    22d1:	48 8d 35 84 6e 00 00 	lea    rsi,[rip+0x6e84]        # 915c <_ZStL19piecewise_construct+0x154>
    22d8:	48 8d 3d 61 8d 00 00 	lea    rdi,[rip+0x8d61]        # b040 <_ZSt4cout@@GLIBCXX_3.4>
    22df:	e8 8c ee ff ff       	call   1170 <_ZStlsISt11char_traitsIcEERSt13basic_ostreamIcT_ES5_PKc@plt>
    22e4:	8b 45 a8             	mov    eax,DWORD PTR [rbp-0x58]
    22e7:	48 63 d0             	movsxd rdx,eax
    22ea:	48 8d 45 c0          	lea    rax,[rbp-0x40]
    22ee:	48 89 d6             	mov    rsi,rdx
    22f1:	48 89 c7             	mov    rdi,rax
    22f4:	e8 f7 ee ff ff       	call   11f0 <_ZNSt7__cxx1112basic_stringIcSt11char_traitsIcESaIcEEixEm@plt>
    22f9:	0f b6 00             	movzx  eax,BYTE PTR [rax]
    22fc:	3c 5d                	cmp    al,0x5d
    22fe:	0f 94 c0             	sete   al
    2301:	84 c0                	test   al,al
    2303:	74 13                	je     2318 <_Z9ascii_artNSt7__cxx1112basic_stringIcSt11char_traitsIcESaIcEEE+0x102f>
    2305:	48 8d 35 49 6e 00 00 	lea    rsi,[rip+0x6e49]        # 9155 <_ZStL19piecewise_construct+0x14d>
    230c:	48 8d 3d 2d 8d 00 00 	lea    rdi,[rip+0x8d2d]        # b040 <_ZSt4cout@@GLIBCXX_3.4>
    2313:	e8 58 ee ff ff       	call   1170 <_ZStlsISt11char_traitsIcEERSt13basic_ostreamIcT_ES5_PKc@plt>
    2318:	8b 45 a8             	mov    eax,DWORD PTR [rbp-0x58]
    231b:	48 63 d0             	movsxd rdx,eax
    231e:	48 8d 45 c0          	lea    rax,[rbp-0x40]
    2322:	48 89 d6             	mov    rsi,rdx
    2325:	48 89 c7             	mov    rdi,rax
    2328:	e8 c3 ee ff ff       	call   11f0 <_ZNSt7__cxx1112basic_stringIcSt11char_traitsIcESaIcEEixEm@plt>
    232d:	0f b6 00             	movzx  eax,BYTE PTR [rax]
    2330:	3c 7d                	cmp    al,0x7d
    2332:	0f 94 c0             	sete   al
    2335:	84 c0                	test   al,al
    2337:	74 13                	je     234c <_Z9ascii_artNSt7__cxx1112basic_stringIcSt11char_traitsIcESaIcEEE+0x1063>
    2339:	48 8d 35 23 6e 00 00 	lea    rsi,[rip+0x6e23]        # 9163 <_ZStL19piecewise_construct+0x15b>
    2340:	48 8d 3d f9 8c 00 00 	lea    rdi,[rip+0x8cf9]        # b040 <_ZSt4cout@@GLIBCXX_3.4>
    2347:	e8 24 ee ff ff       	call   1170 <_ZStlsISt11char_traitsIcEERSt13basic_ostreamIcT_ES5_PKc@plt>
    234c:	8b 45 a8             	mov    eax,DWORD PTR [rbp-0x58]
    234f:	48 63 d0             	movsxd rdx,eax
    2352:	48 8d 45 c0          	lea    rax,[rbp-0x40]
    2356:	48 89 d6             	mov    rsi,rdx
    2359:	48 89 c7             	mov    rdi,rax
    235c:	e8 8f ee ff ff       	call   11f0 <_ZNSt7__cxx1112basic_stringIcSt11char_traitsIcESaIcEEixEm@plt>
    2361:	0f b6 00             	movzx  eax,BYTE PTR [rax]
    2364:	3c 7c                	cmp    al,0x7c
    2366:	0f 94 c0             	sete   al
    2369:	84 c0                	test   al,al
    236b:	74 13                	je     2380 <_Z9ascii_artNSt7__cxx1112basic_stringIcSt11char_traitsIcESaIcEEE+0x1097>
    236d:	48 8d 35 72 6d 00 00 	lea    rsi,[rip+0x6d72]        # 90e6 <_ZStL19piecewise_construct+0xde>
    2374:	48 8d 3d c5 8c 00 00 	lea    rdi,[rip+0x8cc5]        # b040 <_ZSt4cout@@GLIBCXX_3.4>
    237b:	e8 f0 ed ff ff       	call   1170 <_ZStlsISt11char_traitsIcEERSt13basic_ostreamIcT_ES5_PKc@plt>
    2380:	8b 45 a8             	mov    eax,DWORD PTR [rbp-0x58]
    2383:	48 63 d0             	movsxd rdx,eax
    2386:	48 8d 45 c0          	lea    rax,[rbp-0x40]
    238a:	48 89 d6             	mov    rsi,rdx
    238d:	48 89 c7             	mov    rdi,rax
    2390:	e8 5b ee ff ff       	call   11f0 <_ZNSt7__cxx1112basic_stringIcSt11char_traitsIcESaIcEEixEm@plt>
    2395:	0f b6 00             	movzx  eax,BYTE PTR [rax]
    2398:	3c 5c                	cmp    al,0x5c
    239a:	0f 94 c0             	sete   al
    239d:	84 c0                	test   al,al
    239f:	74 13                	je     23b4 <_Z9ascii_artNSt7__cxx1112basic_stringIcSt11char_traitsIcESaIcEEE+0x10cb>
    23a1:	48 8d 35 c2 6d 00 00 	lea    rsi,[rip+0x6dc2]        # 916a <_ZStL19piecewise_construct+0x162>
    23a8:	48 8d 3d 91 8c 00 00 	lea    rdi,[rip+0x8c91]        # b040 <_ZSt4cout@@GLIBCXX_3.4>
    23af:	e8 bc ed ff ff       	call   1170 <_ZStlsISt11char_traitsIcEERSt13basic_ostreamIcT_ES5_PKc@plt>
    23b4:	8b 45 a8             	mov    eax,DWORD PTR [rbp-0x58]
    23b7:	48 63 d0             	movsxd rdx,eax
    23ba:	48 8d 45 c0          	lea    rax,[rbp-0x40]
    23be:	48 89 d6             	mov    rsi,rdx
    23c1:	48 89 c7             	mov    rdi,rax
    23c4:	e8 27 ee ff ff       	call   11f0 <_ZNSt7__cxx1112basic_stringIcSt11char_traitsIcESaIcEEixEm@plt>
    23c9:	0f b6 00             	movzx  eax,BYTE PTR [rax]
    23cc:	3c 3b                	cmp    al,0x3b
    23ce:	0f 94 c0             	sete   al
    23d1:	84 c0                	test   al,al
    23d3:	74 13                	je     23e8 <_Z9ascii_artNSt7__cxx1112basic_stringIcSt11char_traitsIcESaIcEEE+0x10ff>
    23d5:	48 8d 35 0a 6d 00 00 	lea    rsi,[rip+0x6d0a]        # 90e6 <_ZStL19piecewise_construct+0xde>
    23dc:	48 8d 3d 5d 8c 00 00 	lea    rdi,[rip+0x8c5d]        # b040 <_ZSt4cout@@GLIBCXX_3.4>
    23e3:	e8 88 ed ff ff       	call   1170 <_ZStlsISt11char_traitsIcEERSt13basic_ostreamIcT_ES5_PKc@plt>
    23e8:	8b 45 a8             	mov    eax,DWORD PTR [rbp-0x58]
    23eb:	48 63 d0             	movsxd rdx,eax
    23ee:	48 8d 45 c0          	lea    rax,[rbp-0x40]
    23f2:	48 89 d6             	mov    rsi,rdx
    23f5:	48 89 c7             	mov    rdi,rax
    23f8:	e8 f3 ed ff ff       	call   11f0 <_ZNSt7__cxx1112basic_stringIcSt11char_traitsIcESaIcEEixEm@plt>
    23fd:	0f b6 00             	movzx  eax,BYTE PTR [rax]
    2400:	3c 3a                	cmp    al,0x3a
    2402:	0f 94 c0             	sete   al
    2405:	84 c0                	test   al,al
    2407:	74 13                	je     241c <_Z9ascii_artNSt7__cxx1112basic_stringIcSt11char_traitsIcESaIcEEE+0x1133>
    2409:	48 8d 35 f2 6c 00 00 	lea    rsi,[rip+0x6cf2]        # 9102 <_ZStL19piecewise_construct+0xfa>
    2410:	48 8d 3d 29 8c 00 00 	lea    rdi,[rip+0x8c29]        # b040 <_ZSt4cout@@GLIBCXX_3.4>
    2417:	e8 54 ed ff ff       	call   1170 <_ZStlsISt11char_traitsIcEERSt13basic_ostreamIcT_ES5_PKc@plt>
    241c:	8b 45 a8             	mov    eax,DWORD PTR [rbp-0x58]
    241f:	48 63 d0             	movsxd rdx,eax
    2422:	48 8d 45 c0          	lea    rax,[rbp-0x40]
    2426:	48 89 d6             	mov    rsi,rdx
    2429:	48 89 c7             	mov    rdi,rax
    242c:	e8 bf ed ff ff       	call   11f0 <_ZNSt7__cxx1112basic_stringIcSt11char_traitsIcESaIcEEixEm@plt>
    2431:	0f b6 00             	movzx  eax,BYTE PTR [rax]
    2434:	3c 27                	cmp    al,0x27
    2436:	0f 94 c0             	sete   al
    2439:	84 c0                	test   al,al
    243b:	74 13                	je     2450 <_Z9ascii_artNSt7__cxx1112basic_stringIcSt11char_traitsIcESaIcEEE+0x1167>
    243d:	48 8d 35 a2 6c 00 00 	lea    rsi,[rip+0x6ca2]        # 90e6 <_ZStL19piecewise_construct+0xde>
    2444:	48 8d 3d f5 8b 00 00 	lea    rdi,[rip+0x8bf5]        # b040 <_ZSt4cout@@GLIBCXX_3.4>
    244b:	e8 20 ed ff ff       	call   1170 <_ZStlsISt11char_traitsIcEERSt13basic_ostreamIcT_ES5_PKc@plt>
    2450:	8b 45 a8             	mov    eax,DWORD PTR [rbp-0x58]
    2453:	48 63 d0             	movsxd rdx,eax
    2456:	48 8d 45 c0          	lea    rax,[rbp-0x40]
    245a:	48 89 d6             	mov    rsi,rdx
    245d:	48 89 c7             	mov    rdi,rax
    2460:	e8 8b ed ff ff       	call   11f0 <_ZNSt7__cxx1112basic_stringIcSt11char_traitsIcESaIcEEixEm@plt>
    2465:	0f b6 00             	movzx  eax,BYTE PTR [rax]
    2468:	3c 22                	cmp    al,0x22
    246a:	0f 94 c0             	sete   al
    246d:	84 c0                	test   al,al
    246f:	74 13                	je     2484 <_Z9ascii_artNSt7__cxx1112basic_stringIcSt11char_traitsIcESaIcEEE+0x119b>
    2471:	48 8d 35 fb 6c 00 00 	lea    rsi,[rip+0x6cfb]        # 9173 <_ZStL19piecewise_construct+0x16b>
    2478:	48 8d 3d c1 8b 00 00 	lea    rdi,[rip+0x8bc1]        # b040 <_ZSt4cout@@GLIBCXX_3.4>
    247f:	e8 ec ec ff ff       	call   1170 <_ZStlsISt11char_traitsIcEERSt13basic_ostreamIcT_ES5_PKc@plt>
    2484:	8b 45 a8             	mov    eax,DWORD PTR [rbp-0x58]
    2487:	48 63 d0             	movsxd rdx,eax
    248a:	48 8d 45 c0          	lea    rax,[rbp-0x40]
    248e:	48 89 d6             	mov    rsi,rdx
    2491:	48 89 c7             	mov    rdi,rax
    2494:	e8 57 ed ff ff       	call   11f0 <_ZNSt7__cxx1112basic_stringIcSt11char_traitsIcESaIcEEixEm@plt>
    2499:	0f b6 00             	movzx  eax,BYTE PTR [rax]
    249c:	3c 3c                	cmp    al,0x3c
    249e:	0f 94 c0             	sete   al
    24a1:	84 c0                	test   al,al
    24a3:	74 13                	je     24b8 <_Z9ascii_artNSt7__cxx1112basic_stringIcSt11char_traitsIcESaIcEEE+0x11cf>
    24a5:	48 8d 35 b0 6c 00 00 	lea    rsi,[rip+0x6cb0]        # 915c <_ZStL19piecewise_construct+0x154>
    24ac:	48 8d 3d 8d 8b 00 00 	lea    rdi,[rip+0x8b8d]        # b040 <_ZSt4cout@@GLIBCXX_3.4>
    24b3:	e8 b8 ec ff ff       	call   1170 <_ZStlsISt11char_traitsIcEERSt13basic_ostreamIcT_ES5_PKc@plt>
    24b8:	8b 45 a8             	mov    eax,DWORD PTR [rbp-0x58]
    24bb:	48 63 d0             	movsxd rdx,eax
    24be:	48 8d 45 c0          	lea    rax,[rbp-0x40]
    24c2:	48 89 d6             	mov    rsi,rdx
    24c5:	48 89 c7             	mov    rdi,rax
    24c8:	e8 23 ed ff ff       	call   11f0 <_ZNSt7__cxx1112basic_stringIcSt11char_traitsIcESaIcEEixEm@plt>
    24cd:	0f b6 00             	movzx  eax,BYTE PTR [rax]
    24d0:	3c 2c                	cmp    al,0x2c
    24d2:	0f 94 c0             	sete   al
    24d5:	84 c0                	test   al,al
    24d7:	74 13                	je     24ec <_Z9ascii_artNSt7__cxx1112basic_stringIcSt11char_traitsIcESaIcEEE+0x1203>
    24d9:	48 8d 35 22 6c 00 00 	lea    rsi,[rip+0x6c22]        # 9102 <_ZStL19piecewise_construct+0xfa>
    24e0:	48 8d 3d 59 8b 00 00 	lea    rdi,[rip+0x8b59]        # b040 <_ZSt4cout@@GLIBCXX_3.4>
    24e7:	e8 84 ec ff ff       	call   1170 <_ZStlsISt11char_traitsIcEERSt13basic_ostreamIcT_ES5_PKc@plt>
    24ec:	8b 45 a8             	mov    eax,DWORD PTR [rbp-0x58]
    24ef:	48 63 d0             	movsxd rdx,eax
    24f2:	48 8d 45 c0          	lea    rax,[rbp-0x40]
    24f6:	48 89 d6             	mov    rsi,rdx
    24f9:	48 89 c7             	mov    rdi,rax
    24fc:	e8 ef ec ff ff       	call   11f0 <_ZNSt7__cxx1112basic_stringIcSt11char_traitsIcESaIcEEixEm@plt>
    2501:	0f b6 00             	movzx  eax,BYTE PTR [rax]
    2504:	3c 3e                	cmp    al,0x3e
    2506:	0f 94 c0             	sete   al
    2509:	84 c0                	test   al,al
    250b:	74 13                	je     2520 <_Z9ascii_artNSt7__cxx1112basic_stringIcSt11char_traitsIcESaIcEEE+0x1237>
    250d:	48 8d 35 4f 6c 00 00 	lea    rsi,[rip+0x6c4f]        # 9163 <_ZStL19piecewise_construct+0x15b>
    2514:	48 8d 3d 25 8b 00 00 	lea    rdi,[rip+0x8b25]        # b040 <_ZSt4cout@@GLIBCXX_3.4>
    251b:	e8 50 ec ff ff       	call   1170 <_ZStlsISt11char_traitsIcEERSt13basic_ostreamIcT_ES5_PKc@plt>
    2520:	8b 45 a8             	mov    eax,DWORD PTR [rbp-0x58]
    2523:	48 63 d0             	movsxd rdx,eax
    2526:	48 8d 45 c0          	lea    rax,[rbp-0x40]
    252a:	48 89 d6             	mov    rsi,rdx
    252d:	48 89 c7             	mov    rdi,rax
    2530:	e8 bb ec ff ff       	call   11f0 <_ZNSt7__cxx1112basic_stringIcSt11char_traitsIcESaIcEEixEm@plt>
    2535:	0f b6 00             	movzx  eax,BYTE PTR [rax]
    2538:	3c 2f                	cmp    al,0x2f
    253a:	0f 94 c0             	sete   al
    253d:	84 c0                	test   al,al
    253f:	74 13                	je     2554 <_Z9ascii_artNSt7__cxx1112basic_stringIcSt11char_traitsIcESaIcEEE+0x126b>
    2541:	48 8d 35 32 6c 00 00 	lea    rsi,[rip+0x6c32]        # 917a <_ZStL19piecewise_construct+0x172>
    2548:	48 8d 3d f1 8a 00 00 	lea    rdi,[rip+0x8af1]        # b040 <_ZSt4cout@@GLIBCXX_3.4>
    254f:	e8 1c ec ff ff       	call   1170 <_ZStlsISt11char_traitsIcEERSt13basic_ostreamIcT_ES5_PKc@plt>
    2554:	8b 45 a8             	mov    eax,DWORD PTR [rbp-0x58]
    2557:	48 63 d0             	movsxd rdx,eax
    255a:	48 8d 45 c0          	lea    rax,[rbp-0x40]
    255e:	48 89 d6             	mov    rsi,rdx
    2561:	48 89 c7             	mov    rdi,rax
    2564:	e8 87 ec ff ff       	call   11f0 <_ZNSt7__cxx1112basic_stringIcSt11char_traitsIcESaIcEEixEm@plt>
    2569:	0f b6 00             	movzx  eax,BYTE PTR [rax]
    256c:	3c 3f                	cmp    al,0x3f
    256e:	0f 94 c0             	sete   al
    2571:	84 c0                	test   al,al
    2573:	74 13                	je     2588 <_Z9ascii_artNSt7__cxx1112basic_stringIcSt11char_traitsIcESaIcEEE+0x129f>
    2575:	48 8d 35 07 6c 00 00 	lea    rsi,[rip+0x6c07]        # 9183 <_ZStL19piecewise_construct+0x17b>
    257c:	48 8d 3d bd 8a 00 00 	lea    rdi,[rip+0x8abd]        # b040 <_ZSt4cout@@GLIBCXX_3.4>
    2583:	e8 e8 eb ff ff       	call   1170 <_ZStlsISt11char_traitsIcEERSt13basic_ostreamIcT_ES5_PKc@plt>
    2588:	83 45 a8 01          	add    DWORD PTR [rbp-0x58],0x1
    258c:	e9 dd ed ff ff       	jmp    136e <_Z9ascii_artNSt7__cxx1112basic_stringIcSt11char_traitsIcESaIcEEE+0x85>
    2591:	48 8b 05 38 8a 00 00 	mov    rax,QWORD PTR [rip+0x8a38]        # afd0 <_ZSt4endlIcSt11char_traitsIcEERSt13basic_ostreamIT_T0_ES6_@GLIBCXX_3.4>
    2598:	48 89 c6             	mov    rsi,rax
    259b:	48 8d 3d 9e 8a 00 00 	lea    rdi,[rip+0x8a9e]        # b040 <_ZSt4cout@@GLIBCXX_3.4>
    25a2:	e8 d9 eb ff ff       	call   1180 <_ZNSolsEPFRSoS_E@plt>
    25a7:	c7 45 ac 00 00 00 00 	mov    DWORD PTR [rbp-0x54],0x0
    25ae:	8b 45 ac             	mov    eax,DWORD PTR [rbp-0x54]
    25b1:	48 63 d8             	movsxd rbx,eax
    25b4:	48 8d 45 c0          	lea    rax,[rbp-0x40]
    25b8:	48 89 c7             	mov    rdi,rax
    25bb:	e8 90 eb ff ff       	call   1150 <_ZNKSt7__cxx1112basic_stringIcSt11char_traitsIcESaIcEE4sizeEv@plt>
    25c0:	48 39 c3             	cmp    rbx,rax
    25c3:	0f 92 c0             	setb   al
    25c6:	84 c0                	test   al,al
    25c8:	0f 84 03 12 00 00    	je     37d1 <_Z9ascii_artNSt7__cxx1112basic_stringIcSt11char_traitsIcESaIcEEE+0x24e8>
    25ce:	8b 45 ac             	mov    eax,DWORD PTR [rbp-0x54]
    25d1:	48 63 d0             	movsxd rdx,eax
    25d4:	48 8d 45 c0          	lea    rax,[rbp-0x40]
    25d8:	48 89 d6             	mov    rsi,rdx
    25db:	48 89 c7             	mov    rdi,rax
    25de:	e8 0d ec ff ff       	call   11f0 <_ZNSt7__cxx1112basic_stringIcSt11char_traitsIcESaIcEEixEm@plt>
    25e3:	0f b6 00             	movzx  eax,BYTE PTR [rax]
    25e6:	3c 41                	cmp    al,0x41
    25e8:	74 1c                	je     2606 <_Z9ascii_artNSt7__cxx1112basic_stringIcSt11char_traitsIcESaIcEEE+0x131d>
    25ea:	8b 45 ac             	mov    eax,DWORD PTR [rbp-0x54]
    25ed:	48 63 d0             	movsxd rdx,eax
    25f0:	48 8d 45 c0          	lea    rax,[rbp-0x40]
    25f4:	48 89 d6             	mov    rsi,rdx
    25f7:	48 89 c7             	mov    rdi,rax
    25fa:	e8 f1 eb ff ff       	call   11f0 <_ZNSt7__cxx1112basic_stringIcSt11char_traitsIcESaIcEEixEm@plt>
    25ff:	0f b6 00             	movzx  eax,BYTE PTR [rax]
    2602:	3c 61                	cmp    al,0x61
    2604:	75 07                	jne    260d <_Z9ascii_artNSt7__cxx1112basic_stringIcSt11char_traitsIcESaIcEEE+0x1324>
    2606:	b8 01 00 00 00       	mov    eax,0x1
    260b:	eb 05                	jmp    2612 <_Z9ascii_artNSt7__cxx1112basic_stringIcSt11char_traitsIcESaIcEEE+0x1329>
    260d:	b8 00 00 00 00       	mov    eax,0x0
    2612:	84 c0                	test   al,al
    2614:	74 13                	je     2629 <_Z9ascii_artNSt7__cxx1112basic_stringIcSt11char_traitsIcESaIcEEE+0x1340>
    2616:	48 8d 35 6e 6b 00 00 	lea    rsi,[rip+0x6b6e]        # 918b <_ZStL19piecewise_construct+0x183>
    261d:	48 8d 3d 1c 8a 00 00 	lea    rdi,[rip+0x8a1c]        # b040 <_ZSt4cout@@GLIBCXX_3.4>
    2624:	e8 47 eb ff ff       	call   1170 <_ZStlsISt11char_traitsIcEERSt13basic_ostreamIcT_ES5_PKc@plt>
    2629:	8b 45 ac             	mov    eax,DWORD PTR [rbp-0x54]
    262c:	48 63 d0             	movsxd rdx,eax
    262f:	48 8d 45 c0          	lea    rax,[rbp-0x40]
    2633:	48 89 d6             	mov    rsi,rdx
    2636:	48 89 c7             	mov    rdi,rax
    2639:	e8 b2 eb ff ff       	call   11f0 <_ZNSt7__cxx1112basic_stringIcSt11char_traitsIcESaIcEEixEm@plt>
    263e:	0f b6 00             	movzx  eax,BYTE PTR [rax]
    2641:	3c 42                	cmp    al,0x42
    2643:	74 1c                	je     2661 <_Z9ascii_artNSt7__cxx1112basic_stringIcSt11char_traitsIcESaIcEEE+0x1378>
    2645:	8b 45 ac             	mov    eax,DWORD PTR [rbp-0x54]
    2648:	48 63 d0             	movsxd rdx,eax
    264b:	48 8d 45 c0          	lea    rax,[rbp-0x40]
    264f:	48 89 d6             	mov    rsi,rdx
    2652:	48 89 c7             	mov    rdi,rax
    2655:	e8 96 eb ff ff       	call   11f0 <_ZNSt7__cxx1112basic_stringIcSt11char_traitsIcESaIcEEixEm@plt>
    265a:	0f b6 00             	movzx  eax,BYTE PTR [rax]
    265d:	3c 62                	cmp    al,0x62
    265f:	75 07                	jne    2668 <_Z9ascii_artNSt7__cxx1112basic_stringIcSt11char_traitsIcESaIcEEE+0x137f>
    2661:	b8 01 00 00 00       	mov    eax,0x1
    2666:	eb 05                	jmp    266d <_Z9ascii_artNSt7__cxx1112basic_stringIcSt11char_traitsIcESaIcEEE+0x1384>
    2668:	b8 00 00 00 00       	mov    eax,0x0
    266d:	84 c0                	test   al,al
    266f:	74 13                	je     2684 <_Z9ascii_artNSt7__cxx1112basic_stringIcSt11char_traitsIcESaIcEEE+0x139b>
    2671:	48 8d 35 1c 6b 00 00 	lea    rsi,[rip+0x6b1c]        # 9194 <_ZStL19piecewise_construct+0x18c>
    2678:	48 8d 3d c1 89 00 00 	lea    rdi,[rip+0x89c1]        # b040 <_ZSt4cout@@GLIBCXX_3.4>
    267f:	e8 ec ea ff ff       	call   1170 <_ZStlsISt11char_traitsIcEERSt13basic_ostreamIcT_ES5_PKc@plt>
    2684:	8b 45 ac             	mov    eax,DWORD PTR [rbp-0x54]
    2687:	48 63 d0             	movsxd rdx,eax
    268a:	48 8d 45 c0          	lea    rax,[rbp-0x40]
    268e:	48 89 d6             	mov    rsi,rdx
    2691:	48 89 c7             	mov    rdi,rax
    2694:	e8 57 eb ff ff       	call   11f0 <_ZNSt7__cxx1112basic_stringIcSt11char_traitsIcESaIcEEixEm@plt>
    2699:	0f b6 00             	movzx  eax,BYTE PTR [rax]
    269c:	3c 43                	cmp    al,0x43
    269e:	74 1c                	je     26bc <_Z9ascii_artNSt7__cxx1112basic_stringIcSt11char_traitsIcESaIcEEE+0x13d3>
    26a0:	8b 45 ac             	mov    eax,DWORD PTR [rbp-0x54]
    26a3:	48 63 d0             	movsxd rdx,eax
    26a6:	48 8d 45 c0          	lea    rax,[rbp-0x40]
    26aa:	48 89 d6             	mov    rsi,rdx
    26ad:	48 89 c7             	mov    rdi,rax
    26b0:	e8 3b eb ff ff       	call   11f0 <_ZNSt7__cxx1112basic_stringIcSt11char_traitsIcESaIcEEixEm@plt>
    26b5:	0f b6 00             	movzx  eax,BYTE PTR [rax]
    26b8:	3c 63                	cmp    al,0x63
    26ba:	75 07                	jne    26c3 <_Z9ascii_artNSt7__cxx1112basic_stringIcSt11char_traitsIcESaIcEEE+0x13da>
    26bc:	b8 01 00 00 00       	mov    eax,0x1
    26c1:	eb 05                	jmp    26c8 <_Z9ascii_artNSt7__cxx1112basic_stringIcSt11char_traitsIcESaIcEEE+0x13df>
    26c3:	b8 00 00 00 00       	mov    eax,0x0
    26c8:	84 c0                	test   al,al
    26ca:	74 13                	je     26df <_Z9ascii_artNSt7__cxx1112basic_stringIcSt11char_traitsIcESaIcEEE+0x13f6>
    26cc:	48 8d 35 ca 6a 00 00 	lea    rsi,[rip+0x6aca]        # 919d <_ZStL19piecewise_construct+0x195>
    26d3:	48 8d 3d 66 89 00 00 	lea    rdi,[rip+0x8966]        # b040 <_ZSt4cout@@GLIBCXX_3.4>
    26da:	e8 91 ea ff ff       	call   1170 <_ZStlsISt11char_traitsIcEERSt13basic_ostreamIcT_ES5_PKc@plt>
    26df:	8b 45 ac             	mov    eax,DWORD PTR [rbp-0x54]
    26e2:	48 63 d0             	movsxd rdx,eax
    26e5:	48 8d 45 c0          	lea    rax,[rbp-0x40]
    26e9:	48 89 d6             	mov    rsi,rdx
    26ec:	48 89 c7             	mov    rdi,rax
    26ef:	e8 fc ea ff ff       	call   11f0 <_ZNSt7__cxx1112basic_stringIcSt11char_traitsIcESaIcEEixEm@plt>
    26f4:	0f b6 00             	movzx  eax,BYTE PTR [rax]
    26f7:	3c 44                	cmp    al,0x44
    26f9:	74 1c                	je     2717 <_Z9ascii_artNSt7__cxx1112basic_stringIcSt11char_traitsIcESaIcEEE+0x142e>
    26fb:	8b 45 ac             	mov    eax,DWORD PTR [rbp-0x54]
    26fe:	48 63 d0             	movsxd rdx,eax
    2701:	48 8d 45 c0          	lea    rax,[rbp-0x40]
    2705:	48 89 d6             	mov    rsi,rdx
    2708:	48 89 c7             	mov    rdi,rax
    270b:	e8 e0 ea ff ff       	call   11f0 <_ZNSt7__cxx1112basic_stringIcSt11char_traitsIcESaIcEEixEm@plt>
    2710:	0f b6 00             	movzx  eax,BYTE PTR [rax]
    2713:	3c 64                	cmp    al,0x64
    2715:	75 07                	jne    271e <_Z9ascii_artNSt7__cxx1112basic_stringIcSt11char_traitsIcESaIcEEE+0x1435>
    2717:	b8 01 00 00 00       	mov    eax,0x1
    271c:	eb 05                	jmp    2723 <_Z9ascii_artNSt7__cxx1112basic_stringIcSt11char_traitsIcESaIcEEE+0x143a>
    271e:	b8 00 00 00 00       	mov    eax,0x0
    2723:	84 c0                	test   al,al
    2725:	74 13                	je     273a <_Z9ascii_artNSt7__cxx1112basic_stringIcSt11char_traitsIcESaIcEEE+0x1451>
    2727:	48 8d 35 78 6a 00 00 	lea    rsi,[rip+0x6a78]        # 91a6 <_ZStL19piecewise_construct+0x19e>
    272e:	48 8d 3d 0b 89 00 00 	lea    rdi,[rip+0x890b]        # b040 <_ZSt4cout@@GLIBCXX_3.4>
    2735:	e8 36 ea ff ff       	call   1170 <_ZStlsISt11char_traitsIcEERSt13basic_ostreamIcT_ES5_PKc@plt>
    273a:	8b 45 ac             	mov    eax,DWORD PTR [rbp-0x54]
    273d:	48 63 d0             	movsxd rdx,eax
    2740:	48 8d 45 c0          	lea    rax,[rbp-0x40]
    2744:	48 89 d6             	mov    rsi,rdx
    2747:	48 89 c7             	mov    rdi,rax
    274a:	e8 a1 ea ff ff       	call   11f0 <_ZNSt7__cxx1112basic_stringIcSt11char_traitsIcESaIcEEixEm@plt>
    274f:	0f b6 00             	movzx  eax,BYTE PTR [rax]
    2752:	3c 45                	cmp    al,0x45
    2754:	74 1c                	je     2772 <_Z9ascii_artNSt7__cxx1112basic_stringIcSt11char_traitsIcESaIcEEE+0x1489>
    2756:	8b 45 ac             	mov    eax,DWORD PTR [rbp-0x54]
    2759:	48 63 d0             	movsxd rdx,eax
    275c:	48 8d 45 c0          	lea    rax,[rbp-0x40]
    2760:	48 89 d6             	mov    rsi,rdx
    2763:	48 89 c7             	mov    rdi,rax
    2766:	e8 85 ea ff ff       	call   11f0 <_ZNSt7__cxx1112basic_stringIcSt11char_traitsIcESaIcEEixEm@plt>
    276b:	0f b6 00             	movzx  eax,BYTE PTR [rax]
    276e:	3c 65                	cmp    al,0x65
    2770:	75 07                	jne    2779 <_Z9ascii_artNSt7__cxx1112basic_stringIcSt11char_traitsIcESaIcEEE+0x1490>
    2772:	b8 01 00 00 00       	mov    eax,0x1
    2777:	eb 05                	jmp    277e <_Z9ascii_artNSt7__cxx1112basic_stringIcSt11char_traitsIcESaIcEEE+0x1495>
    2779:	b8 00 00 00 00       	mov    eax,0x0
    277e:	84 c0                	test   al,al
    2780:	74 13                	je     2795 <_Z9ascii_artNSt7__cxx1112basic_stringIcSt11char_traitsIcESaIcEEE+0x14ac>
    2782:	48 8d 35 26 6a 00 00 	lea    rsi,[rip+0x6a26]        # 91af <_ZStL19piecewise_construct+0x1a7>
    2789:	48 8d 3d b0 88 00 00 	lea    rdi,[rip+0x88b0]        # b040 <_ZSt4cout@@GLIBCXX_3.4>
    2790:	e8 db e9 ff ff       	call   1170 <_ZStlsISt11char_traitsIcEERSt13basic_ostreamIcT_ES5_PKc@plt>
    2795:	8b 45 ac             	mov    eax,DWORD PTR [rbp-0x54]
    2798:	48 63 d0             	movsxd rdx,eax
    279b:	48 8d 45 c0          	lea    rax,[rbp-0x40]
    279f:	48 89 d6             	mov    rsi,rdx
    27a2:	48 89 c7             	mov    rdi,rax
    27a5:	e8 46 ea ff ff       	call   11f0 <_ZNSt7__cxx1112basic_stringIcSt11char_traitsIcESaIcEEixEm@plt>
    27aa:	0f b6 00             	movzx  eax,BYTE PTR [rax]
    27ad:	3c 46                	cmp    al,0x46
    27af:	74 1c                	je     27cd <_Z9ascii_artNSt7__cxx1112basic_stringIcSt11char_traitsIcESaIcEEE+0x14e4>
    27b1:	8b 45 ac             	mov    eax,DWORD PTR [rbp-0x54]
    27b4:	48 63 d0             	movsxd rdx,eax
    27b7:	48 8d 45 c0          	lea    rax,[rbp-0x40]
    27bb:	48 89 d6             	mov    rsi,rdx
    27be:	48 89 c7             	mov    rdi,rax
    27c1:	e8 2a ea ff ff       	call   11f0 <_ZNSt7__cxx1112basic_stringIcSt11char_traitsIcESaIcEEixEm@plt>
    27c6:	0f b6 00             	movzx  eax,BYTE PTR [rax]
    27c9:	3c 66                	cmp    al,0x66
    27cb:	75 07                	jne    27d4 <_Z9ascii_artNSt7__cxx1112basic_stringIcSt11char_traitsIcESaIcEEE+0x14eb>
    27cd:	b8 01 00 00 00       	mov    eax,0x1
    27d2:	eb 05                	jmp    27d9 <_Z9ascii_artNSt7__cxx1112basic_stringIcSt11char_traitsIcESaIcEEE+0x14f0>
    27d4:	b8 00 00 00 00       	mov    eax,0x0
    27d9:	84 c0                	test   al,al
    27db:	74 13                	je     27f0 <_Z9ascii_artNSt7__cxx1112basic_stringIcSt11char_traitsIcESaIcEEE+0x1507>
    27dd:	48 8d 35 cb 69 00 00 	lea    rsi,[rip+0x69cb]        # 91af <_ZStL19piecewise_construct+0x1a7>
    27e4:	48 8d 3d 55 88 00 00 	lea    rdi,[rip+0x8855]        # b040 <_ZSt4cout@@GLIBCXX_3.4>
    27eb:	e8 80 e9 ff ff       	call   1170 <_ZStlsISt11char_traitsIcEERSt13basic_ostreamIcT_ES5_PKc@plt>
    27f0:	8b 45 ac             	mov    eax,DWORD PTR [rbp-0x54]
    27f3:	48 63 d0             	movsxd rdx,eax
    27f6:	48 8d 45 c0          	lea    rax,[rbp-0x40]
    27fa:	48 89 d6             	mov    rsi,rdx
    27fd:	48 89 c7             	mov    rdi,rax
    2800:	e8 eb e9 ff ff       	call   11f0 <_ZNSt7__cxx1112basic_stringIcSt11char_traitsIcESaIcEEixEm@plt>
    2805:	0f b6 00             	movzx  eax,BYTE PTR [rax]
    2808:	3c 47                	cmp    al,0x47
    280a:	74 1c                	je     2828 <_Z9ascii_artNSt7__cxx1112basic_stringIcSt11char_traitsIcESaIcEEE+0x153f>
    280c:	8b 45 ac             	mov    eax,DWORD PTR [rbp-0x54]
    280f:	48 63 d0             	movsxd rdx,eax
    2812:	48 8d 45 c0          	lea    rax,[rbp-0x40]
    2816:	48 89 d6             	mov    rsi,rdx
    2819:	48 89 c7             	mov    rdi,rax
    281c:	e8 cf e9 ff ff       	call   11f0 <_ZNSt7__cxx1112basic_stringIcSt11char_traitsIcESaIcEEixEm@plt>
    2821:	0f b6 00             	movzx  eax,BYTE PTR [rax]
    2824:	3c 67                	cmp    al,0x67
    2826:	75 07                	jne    282f <_Z9ascii_artNSt7__cxx1112basic_stringIcSt11char_traitsIcESaIcEEE+0x1546>
    2828:	b8 01 00 00 00       	mov    eax,0x1
    282d:	eb 05                	jmp    2834 <_Z9ascii_artNSt7__cxx1112basic_stringIcSt11char_traitsIcESaIcEEE+0x154b>
    282f:	b8 00 00 00 00       	mov    eax,0x0
    2834:	84 c0                	test   al,al
    2836:	74 13                	je     284b <_Z9ascii_artNSt7__cxx1112basic_stringIcSt11char_traitsIcESaIcEEE+0x1562>
    2838:	48 8d 35 79 69 00 00 	lea    rsi,[rip+0x6979]        # 91b8 <_ZStL19piecewise_construct+0x1b0>
    283f:	48 8d 3d fa 87 00 00 	lea    rdi,[rip+0x87fa]        # b040 <_ZSt4cout@@GLIBCXX_3.4>
    2846:	e8 25 e9 ff ff       	call   1170 <_ZStlsISt11char_traitsIcEERSt13basic_ostreamIcT_ES5_PKc@plt>
    284b:	8b 45 ac             	mov    eax,DWORD PTR [rbp-0x54]
    284e:	48 63 d0             	movsxd rdx,eax
    2851:	48 8d 45 c0          	lea    rax,[rbp-0x40]
    2855:	48 89 d6             	mov    rsi,rdx
    2858:	48 89 c7             	mov    rdi,rax
    285b:	e8 90 e9 ff ff       	call   11f0 <_ZNSt7__cxx1112basic_stringIcSt11char_traitsIcESaIcEEixEm@plt>
    2860:	0f b6 00             	movzx  eax,BYTE PTR [rax]
    2863:	3c 48                	cmp    al,0x48
    2865:	74 1c                	je     2883 <_Z9ascii_artNSt7__cxx1112basic_stringIcSt11char_traitsIcESaIcEEE+0x159a>
    2867:	8b 45 ac             	mov    eax,DWORD PTR [rbp-0x54]
    286a:	48 63 d0             	movsxd rdx,eax
    286d:	48 8d 45 c0          	lea    rax,[rbp-0x40]
    2871:	48 89 d6             	mov    rsi,rdx
    2874:	48 89 c7             	mov    rdi,rax
    2877:	e8 74 e9 ff ff       	call   11f0 <_ZNSt7__cxx1112basic_stringIcSt11char_traitsIcESaIcEEixEm@plt>
    287c:	0f b6 00             	movzx  eax,BYTE PTR [rax]
    287f:	3c 68                	cmp    al,0x68
    2881:	75 07                	jne    288a <_Z9ascii_artNSt7__cxx1112basic_stringIcSt11char_traitsIcESaIcEEE+0x15a1>
    2883:	b8 01 00 00 00       	mov    eax,0x1
    2888:	eb 05                	jmp    288f <_Z9ascii_artNSt7__cxx1112basic_stringIcSt11char_traitsIcESaIcEEE+0x15a6>
    288a:	b8 00 00 00 00       	mov    eax,0x0
    288f:	84 c0                	test   al,al
    2891:	74 13                	je     28a6 <_Z9ascii_artNSt7__cxx1112basic_stringIcSt11char_traitsIcESaIcEEE+0x15bd>
    2893:	48 8d 35 27 69 00 00 	lea    rsi,[rip+0x6927]        # 91c1 <_ZStL19piecewise_construct+0x1b9>
    289a:	48 8d 3d 9f 87 00 00 	lea    rdi,[rip+0x879f]        # b040 <_ZSt4cout@@GLIBCXX_3.4>
    28a1:	e8 ca e8 ff ff       	call   1170 <_ZStlsISt11char_traitsIcEERSt13basic_ostreamIcT_ES5_PKc@plt>
    28a6:	8b 45 ac             	mov    eax,DWORD PTR [rbp-0x54]
    28a9:	48 63 d0             	movsxd rdx,eax
    28ac:	48 8d 45 c0          	lea    rax,[rbp-0x40]
    28b0:	48 89 d6             	mov    rsi,rdx
    28b3:	48 89 c7             	mov    rdi,rax
    28b6:	e8 35 e9 ff ff       	call   11f0 <_ZNSt7__cxx1112basic_stringIcSt11char_traitsIcESaIcEEixEm@plt>
    28bb:	0f b6 00             	movzx  eax,BYTE PTR [rax]
    28be:	3c 49                	cmp    al,0x49
    28c0:	74 1c                	je     28de <_Z9ascii_artNSt7__cxx1112basic_stringIcSt11char_traitsIcESaIcEEE+0x15f5>
    28c2:	8b 45 ac             	mov    eax,DWORD PTR [rbp-0x54]
    28c5:	48 63 d0             	movsxd rdx,eax
    28c8:	48 8d 45 c0          	lea    rax,[rbp-0x40]
    28cc:	48 89 d6             	mov    rsi,rdx
    28cf:	48 89 c7             	mov    rdi,rax
    28d2:	e8 19 e9 ff ff       	call   11f0 <_ZNSt7__cxx1112basic_stringIcSt11char_traitsIcESaIcEEixEm@plt>
    28d7:	0f b6 00             	movzx  eax,BYTE PTR [rax]
    28da:	3c 69                	cmp    al,0x69
    28dc:	75 07                	jne    28e5 <_Z9ascii_artNSt7__cxx1112basic_stringIcSt11char_traitsIcESaIcEEE+0x15fc>
    28de:	b8 01 00 00 00       	mov    eax,0x1
    28e3:	eb 05                	jmp    28ea <_Z9ascii_artNSt7__cxx1112basic_stringIcSt11char_traitsIcESaIcEEE+0x1601>
    28e5:	b8 00 00 00 00       	mov    eax,0x0
    28ea:	84 c0                	test   al,al
    28ec:	74 13                	je     2901 <_Z9ascii_artNSt7__cxx1112basic_stringIcSt11char_traitsIcESaIcEEE+0x1618>
    28ee:	48 8d 35 d5 68 00 00 	lea    rsi,[rip+0x68d5]        # 91ca <_ZStL19piecewise_construct+0x1c2>
    28f5:	48 8d 3d 44 87 00 00 	lea    rdi,[rip+0x8744]        # b040 <_ZSt4cout@@GLIBCXX_3.4>
    28fc:	e8 6f e8 ff ff       	call   1170 <_ZStlsISt11char_traitsIcEERSt13basic_ostreamIcT_ES5_PKc@plt>
    2901:	8b 45 ac             	mov    eax,DWORD PTR [rbp-0x54]
    2904:	48 63 d0             	movsxd rdx,eax
    2907:	48 8d 45 c0          	lea    rax,[rbp-0x40]
    290b:	48 89 d6             	mov    rsi,rdx
    290e:	48 89 c7             	mov    rdi,rax
    2911:	e8 da e8 ff ff       	call   11f0 <_ZNSt7__cxx1112basic_stringIcSt11char_traitsIcESaIcEEixEm@plt>
    2916:	0f b6 00             	movzx  eax,BYTE PTR [rax]
    2919:	3c 4a                	cmp    al,0x4a
    291b:	74 1c                	je     2939 <_Z9ascii_artNSt7__cxx1112basic_stringIcSt11char_traitsIcESaIcEEE+0x1650>
    291d:	8b 45 ac             	mov    eax,DWORD PTR [rbp-0x54]
    2920:	48 63 d0             	movsxd rdx,eax
    2923:	48 8d 45 c0          	lea    rax,[rbp-0x40]
    2927:	48 89 d6             	mov    rsi,rdx
    292a:	48 89 c7             	mov    rdi,rax
    292d:	e8 be e8 ff ff       	call   11f0 <_ZNSt7__cxx1112basic_stringIcSt11char_traitsIcESaIcEEixEm@plt>
    2932:	0f b6 00             	movzx  eax,BYTE PTR [rax]
    2935:	3c 6a                	cmp    al,0x6a
    2937:	75 07                	jne    2940 <_Z9ascii_artNSt7__cxx1112basic_stringIcSt11char_traitsIcESaIcEEE+0x1657>
    2939:	b8 01 00 00 00       	mov    eax,0x1
    293e:	eb 05                	jmp    2945 <_Z9ascii_artNSt7__cxx1112basic_stringIcSt11char_traitsIcESaIcEEE+0x165c>
    2940:	b8 00 00 00 00       	mov    eax,0x0
    2945:	84 c0                	test   al,al
    2947:	74 13                	je     295c <_Z9ascii_artNSt7__cxx1112basic_stringIcSt11char_traitsIcESaIcEEE+0x1673>
    2949:	48 8d 35 83 68 00 00 	lea    rsi,[rip+0x6883]        # 91d3 <_ZStL19piecewise_construct+0x1cb>
    2950:	48 8d 3d e9 86 00 00 	lea    rdi,[rip+0x86e9]        # b040 <_ZSt4cout@@GLIBCXX_3.4>
    2957:	e8 14 e8 ff ff       	call   1170 <_ZStlsISt11char_traitsIcEERSt13basic_ostreamIcT_ES5_PKc@plt>
    295c:	8b 45 ac             	mov    eax,DWORD PTR [rbp-0x54]
    295f:	48 63 d0             	movsxd rdx,eax
    2962:	48 8d 45 c0          	lea    rax,[rbp-0x40]
    2966:	48 89 d6             	mov    rsi,rdx
    2969:	48 89 c7             	mov    rdi,rax
    296c:	e8 7f e8 ff ff       	call   11f0 <_ZNSt7__cxx1112basic_stringIcSt11char_traitsIcESaIcEEixEm@plt>
    2971:	0f b6 00             	movzx  eax,BYTE PTR [rax]
    2974:	3c 4b                	cmp    al,0x4b
    2976:	74 1c                	je     2994 <_Z9ascii_artNSt7__cxx1112basic_stringIcSt11char_traitsIcESaIcEEE+0x16ab>
    2978:	8b 45 ac             	mov    eax,DWORD PTR [rbp-0x54]
    297b:	48 63 d0             	movsxd rdx,eax
    297e:	48 8d 45 c0          	lea    rax,[rbp-0x40]
    2982:	48 89 d6             	mov    rsi,rdx
    2985:	48 89 c7             	mov    rdi,rax
    2988:	e8 63 e8 ff ff       	call   11f0 <_ZNSt7__cxx1112basic_stringIcSt11char_traitsIcESaIcEEixEm@plt>
    298d:	0f b6 00             	movzx  eax,BYTE PTR [rax]
    2990:	3c 6b                	cmp    al,0x6b
    2992:	75 07                	jne    299b <_Z9ascii_artNSt7__cxx1112basic_stringIcSt11char_traitsIcESaIcEEE+0x16b2>
    2994:	b8 01 00 00 00       	mov    eax,0x1
    2999:	eb 05                	jmp    29a0 <_Z9ascii_artNSt7__cxx1112basic_stringIcSt11char_traitsIcESaIcEEE+0x16b7>
    299b:	b8 00 00 00 00       	mov    eax,0x0
    29a0:	84 c0                	test   al,al
    29a2:	74 13                	je     29b7 <_Z9ascii_artNSt7__cxx1112basic_stringIcSt11char_traitsIcESaIcEEE+0x16ce>
    29a4:	48 8d 35 31 68 00 00 	lea    rsi,[rip+0x6831]        # 91dc <_ZStL19piecewise_construct+0x1d4>
    29ab:	48 8d 3d 8e 86 00 00 	lea    rdi,[rip+0x868e]        # b040 <_ZSt4cout@@GLIBCXX_3.4>
    29b2:	e8 b9 e7 ff ff       	call   1170 <_ZStlsISt11char_traitsIcEERSt13basic_ostreamIcT_ES5_PKc@plt>
    29b7:	8b 45 ac             	mov    eax,DWORD PTR [rbp-0x54]
    29ba:	48 63 d0             	movsxd rdx,eax
    29bd:	48 8d 45 c0          	lea    rax,[rbp-0x40]
    29c1:	48 89 d6             	mov    rsi,rdx
    29c4:	48 89 c7             	mov    rdi,rax
    29c7:	e8 24 e8 ff ff       	call   11f0 <_ZNSt7__cxx1112basic_stringIcSt11char_traitsIcESaIcEEixEm@plt>
    29cc:	0f b6 00             	movzx  eax,BYTE PTR [rax]
    29cf:	3c 4c                	cmp    al,0x4c
    29d1:	74 1c                	je     29ef <_Z9ascii_artNSt7__cxx1112basic_stringIcSt11char_traitsIcESaIcEEE+0x1706>
    29d3:	8b 45 ac             	mov    eax,DWORD PTR [rbp-0x54]
    29d6:	48 63 d0             	movsxd rdx,eax
    29d9:	48 8d 45 c0          	lea    rax,[rbp-0x40]
    29dd:	48 89 d6             	mov    rsi,rdx
    29e0:	48 89 c7             	mov    rdi,rax
    29e3:	e8 08 e8 ff ff       	call   11f0 <_ZNSt7__cxx1112basic_stringIcSt11char_traitsIcESaIcEEixEm@plt>
    29e8:	0f b6 00             	movzx  eax,BYTE PTR [rax]
    29eb:	3c 6c                	cmp    al,0x6c
    29ed:	75 07                	jne    29f6 <_Z9ascii_artNSt7__cxx1112basic_stringIcSt11char_traitsIcESaIcEEE+0x170d>
    29ef:	b8 01 00 00 00       	mov    eax,0x1
    29f4:	eb 05                	jmp    29fb <_Z9ascii_artNSt7__cxx1112basic_stringIcSt11char_traitsIcESaIcEEE+0x1712>
    29f6:	b8 00 00 00 00       	mov    eax,0x0
    29fb:	84 c0                	test   al,al
    29fd:	74 13                	je     2a12 <_Z9ascii_artNSt7__cxx1112basic_stringIcSt11char_traitsIcESaIcEEE+0x1729>
    29ff:	48 8d 35 df 67 00 00 	lea    rsi,[rip+0x67df]        # 91e5 <_ZStL19piecewise_construct+0x1dd>
    2a06:	48 8d 3d 33 86 00 00 	lea    rdi,[rip+0x8633]        # b040 <_ZSt4cout@@GLIBCXX_3.4>
    2a0d:	e8 5e e7 ff ff       	call   1170 <_ZStlsISt11char_traitsIcEERSt13basic_ostreamIcT_ES5_PKc@plt>
    2a12:	8b 45 ac             	mov    eax,DWORD PTR [rbp-0x54]
    2a15:	48 63 d0             	movsxd rdx,eax
    2a18:	48 8d 45 c0          	lea    rax,[rbp-0x40]
    2a1c:	48 89 d6             	mov    rsi,rdx
    2a1f:	48 89 c7             	mov    rdi,rax
    2a22:	e8 c9 e7 ff ff       	call   11f0 <_ZNSt7__cxx1112basic_stringIcSt11char_traitsIcESaIcEEixEm@plt>
    2a27:	0f b6 00             	movzx  eax,BYTE PTR [rax]
    2a2a:	3c 4d                	cmp    al,0x4d
    2a2c:	74 1c                	je     2a4a <_Z9ascii_artNSt7__cxx1112basic_stringIcSt11char_traitsIcESaIcEEE+0x1761>
    2a2e:	8b 45 ac             	mov    eax,DWORD PTR [rbp-0x54]
    2a31:	48 63 d0             	movsxd rdx,eax
    2a34:	48 8d 45 c0          	lea    rax,[rbp-0x40]
    2a38:	48 89 d6             	mov    rsi,rdx
    2a3b:	48 89 c7             	mov    rdi,rax
    2a3e:	e8 ad e7 ff ff       	call   11f0 <_ZNSt7__cxx1112basic_stringIcSt11char_traitsIcESaIcEEixEm@plt>
    2a43:	0f b6 00             	movzx  eax,BYTE PTR [rax]
    2a46:	3c 6d                	cmp    al,0x6d
    2a48:	75 07                	jne    2a51 <_Z9ascii_artNSt7__cxx1112basic_stringIcSt11char_traitsIcESaIcEEE+0x1768>
    2a4a:	b8 01 00 00 00       	mov    eax,0x1
    2a4f:	eb 05                	jmp    2a56 <_Z9ascii_artNSt7__cxx1112basic_stringIcSt11char_traitsIcESaIcEEE+0x176d>
    2a51:	b8 00 00 00 00       	mov    eax,0x0
    2a56:	84 c0                	test   al,al
    2a58:	74 13                	je     2a6d <_Z9ascii_artNSt7__cxx1112basic_stringIcSt11char_traitsIcESaIcEEE+0x1784>
    2a5a:	48 8d 35 8d 67 00 00 	lea    rsi,[rip+0x678d]        # 91ee <_ZStL19piecewise_construct+0x1e6>
    2a61:	48 8d 3d d8 85 00 00 	lea    rdi,[rip+0x85d8]        # b040 <_ZSt4cout@@GLIBCXX_3.4>
    2a68:	e8 03 e7 ff ff       	call   1170 <_ZStlsISt11char_traitsIcEERSt13basic_ostreamIcT_ES5_PKc@plt>
    2a6d:	8b 45 ac             	mov    eax,DWORD PTR [rbp-0x54]
    2a70:	48 63 d0             	movsxd rdx,eax
    2a73:	48 8d 45 c0          	lea    rax,[rbp-0x40]
    2a77:	48 89 d6             	mov    rsi,rdx
    2a7a:	48 89 c7             	mov    rdi,rax
    2a7d:	e8 6e e7 ff ff       	call   11f0 <_ZNSt7__cxx1112basic_stringIcSt11char_traitsIcESaIcEEixEm@plt>
    2a82:	0f b6 00             	movzx  eax,BYTE PTR [rax]
    2a85:	3c 4e                	cmp    al,0x4e
    2a87:	74 1c                	je     2aa5 <_Z9ascii_artNSt7__cxx1112basic_stringIcSt11char_traitsIcESaIcEEE+0x17bc>
    2a89:	8b 45 ac             	mov    eax,DWORD PTR [rbp-0x54]
    2a8c:	48 63 d0             	movsxd rdx,eax
    2a8f:	48 8d 45 c0          	lea    rax,[rbp-0x40]
    2a93:	48 89 d6             	mov    rsi,rdx
    2a96:	48 89 c7             	mov    rdi,rax
    2a99:	e8 52 e7 ff ff       	call   11f0 <_ZNSt7__cxx1112basic_stringIcSt11char_traitsIcESaIcEEixEm@plt>
    2a9e:	0f b6 00             	movzx  eax,BYTE PTR [rax]
    2aa1:	3c 6e                	cmp    al,0x6e
    2aa3:	75 07                	jne    2aac <_Z9ascii_artNSt7__cxx1112basic_stringIcSt11char_traitsIcESaIcEEE+0x17c3>
    2aa5:	b8 01 00 00 00       	mov    eax,0x1
    2aaa:	eb 05                	jmp    2ab1 <_Z9ascii_artNSt7__cxx1112basic_stringIcSt11char_traitsIcESaIcEEE+0x17c8>
    2aac:	b8 00 00 00 00       	mov    eax,0x0
    2ab1:	84 c0                	test   al,al
    2ab3:	74 13                	je     2ac8 <_Z9ascii_artNSt7__cxx1112basic_stringIcSt11char_traitsIcESaIcEEE+0x17df>
    2ab5:	48 8d 35 3c 67 00 00 	lea    rsi,[rip+0x673c]        # 91f8 <_ZStL19piecewise_construct+0x1f0>
    2abc:	48 8d 3d 7d 85 00 00 	lea    rdi,[rip+0x857d]        # b040 <_ZSt4cout@@GLIBCXX_3.4>
    2ac3:	e8 a8 e6 ff ff       	call   1170 <_ZStlsISt11char_traitsIcEERSt13basic_ostreamIcT_ES5_PKc@plt>
    2ac8:	8b 45 ac             	mov    eax,DWORD PTR [rbp-0x54]
    2acb:	48 63 d0             	movsxd rdx,eax
    2ace:	48 8d 45 c0          	lea    rax,[rbp-0x40]
    2ad2:	48 89 d6             	mov    rsi,rdx
    2ad5:	48 89 c7             	mov    rdi,rax
    2ad8:	e8 13 e7 ff ff       	call   11f0 <_ZNSt7__cxx1112basic_stringIcSt11char_traitsIcESaIcEEixEm@plt>
    2add:	0f b6 00             	movzx  eax,BYTE PTR [rax]
    2ae0:	3c 4f                	cmp    al,0x4f
    2ae2:	74 1c                	je     2b00 <_Z9ascii_artNSt7__cxx1112basic_stringIcSt11char_traitsIcESaIcEEE+0x1817>
    2ae4:	8b 45 ac             	mov    eax,DWORD PTR [rbp-0x54]
    2ae7:	48 63 d0             	movsxd rdx,eax
    2aea:	48 8d 45 c0          	lea    rax,[rbp-0x40]
    2aee:	48 89 d6             	mov    rsi,rdx
    2af1:	48 89 c7             	mov    rdi,rax
    2af4:	e8 f7 e6 ff ff       	call   11f0 <_ZNSt7__cxx1112basic_stringIcSt11char_traitsIcESaIcEEixEm@plt>
    2af9:	0f b6 00             	movzx  eax,BYTE PTR [rax]
    2afc:	3c 6f                	cmp    al,0x6f
    2afe:	75 07                	jne    2b07 <_Z9ascii_artNSt7__cxx1112basic_stringIcSt11char_traitsIcESaIcEEE+0x181e>
    2b00:	b8 01 00 00 00       	mov    eax,0x1
    2b05:	eb 05                	jmp    2b0c <_Z9ascii_artNSt7__cxx1112basic_stringIcSt11char_traitsIcESaIcEEE+0x1823>
    2b07:	b8 00 00 00 00       	mov    eax,0x0
    2b0c:	84 c0                	test   al,al
    2b0e:	74 13                	je     2b23 <_Z9ascii_artNSt7__cxx1112basic_stringIcSt11char_traitsIcESaIcEEE+0x183a>
    2b10:	48 8d 35 ea 66 00 00 	lea    rsi,[rip+0x66ea]        # 9201 <_ZStL19piecewise_construct+0x1f9>
    2b17:	48 8d 3d 22 85 00 00 	lea    rdi,[rip+0x8522]        # b040 <_ZSt4cout@@GLIBCXX_3.4>
    2b1e:	e8 4d e6 ff ff       	call   1170 <_ZStlsISt11char_traitsIcEERSt13basic_ostreamIcT_ES5_PKc@plt>
    2b23:	8b 45 ac             	mov    eax,DWORD PTR [rbp-0x54]
    2b26:	48 63 d0             	movsxd rdx,eax
    2b29:	48 8d 45 c0          	lea    rax,[rbp-0x40]
    2b2d:	48 89 d6             	mov    rsi,rdx
    2b30:	48 89 c7             	mov    rdi,rax
    2b33:	e8 b8 e6 ff ff       	call   11f0 <_ZNSt7__cxx1112basic_stringIcSt11char_traitsIcESaIcEEixEm@plt>
    2b38:	0f b6 00             	movzx  eax,BYTE PTR [rax]
    2b3b:	3c 50                	cmp    al,0x50
    2b3d:	74 1c                	je     2b5b <_Z9ascii_artNSt7__cxx1112basic_stringIcSt11char_traitsIcESaIcEEE+0x1872>
    2b3f:	8b 45 ac             	mov    eax,DWORD PTR [rbp-0x54]
    2b42:	48 63 d0             	movsxd rdx,eax
    2b45:	48 8d 45 c0          	lea    rax,[rbp-0x40]
    2b49:	48 89 d6             	mov    rsi,rdx
    2b4c:	48 89 c7             	mov    rdi,rax
    2b4f:	e8 9c e6 ff ff       	call   11f0 <_ZNSt7__cxx1112basic_stringIcSt11char_traitsIcESaIcEEixEm@plt>
    2b54:	0f b6 00             	movzx  eax,BYTE PTR [rax]
    2b57:	3c 70                	cmp    al,0x70
    2b59:	75 07                	jne    2b62 <_Z9ascii_artNSt7__cxx1112basic_stringIcSt11char_traitsIcESaIcEEE+0x1879>
    2b5b:	b8 01 00 00 00       	mov    eax,0x1
    2b60:	eb 05                	jmp    2b67 <_Z9ascii_artNSt7__cxx1112basic_stringIcSt11char_traitsIcESaIcEEE+0x187e>
    2b62:	b8 00 00 00 00       	mov    eax,0x0
    2b67:	84 c0                	test   al,al
    2b69:	74 13                	je     2b7e <_Z9ascii_artNSt7__cxx1112basic_stringIcSt11char_traitsIcESaIcEEE+0x1895>
    2b6b:	48 8d 35 22 66 00 00 	lea    rsi,[rip+0x6622]        # 9194 <_ZStL19piecewise_construct+0x18c>
    2b72:	48 8d 3d c7 84 00 00 	lea    rdi,[rip+0x84c7]        # b040 <_ZSt4cout@@GLIBCXX_3.4>
    2b79:	e8 f2 e5 ff ff       	call   1170 <_ZStlsISt11char_traitsIcEERSt13basic_ostreamIcT_ES5_PKc@plt>
    2b7e:	8b 45 ac             	mov    eax,DWORD PTR [rbp-0x54]
    2b81:	48 63 d0             	movsxd rdx,eax
    2b84:	48 8d 45 c0          	lea    rax,[rbp-0x40]
    2b88:	48 89 d6             	mov    rsi,rdx
    2b8b:	48 89 c7             	mov    rdi,rax
    2b8e:	e8 5d e6 ff ff       	call   11f0 <_ZNSt7__cxx1112basic_stringIcSt11char_traitsIcESaIcEEixEm@plt>
    2b93:	0f b6 00             	movzx  eax,BYTE PTR [rax]
    2b96:	3c 51                	cmp    al,0x51
    2b98:	74 1c                	je     2bb6 <_Z9ascii_artNSt7__cxx1112basic_stringIcSt11char_traitsIcESaIcEEE+0x18cd>
    2b9a:	8b 45 ac             	mov    eax,DWORD PTR [rbp-0x54]
    2b9d:	48 63 d0             	movsxd rdx,eax
    2ba0:	48 8d 45 c0          	lea    rax,[rbp-0x40]
    2ba4:	48 89 d6             	mov    rsi,rdx
    2ba7:	48 89 c7             	mov    rdi,rax
    2baa:	e8 41 e6 ff ff       	call   11f0 <_ZNSt7__cxx1112basic_stringIcSt11char_traitsIcESaIcEEixEm@plt>
    2baf:	0f b6 00             	movzx  eax,BYTE PTR [rax]
    2bb2:	3c 71                	cmp    al,0x71
    2bb4:	75 07                	jne    2bbd <_Z9ascii_artNSt7__cxx1112basic_stringIcSt11char_traitsIcESaIcEEE+0x18d4>
    2bb6:	b8 01 00 00 00       	mov    eax,0x1
    2bbb:	eb 05                	jmp    2bc2 <_Z9ascii_artNSt7__cxx1112basic_stringIcSt11char_traitsIcESaIcEEE+0x18d9>
    2bbd:	b8 00 00 00 00       	mov    eax,0x0
    2bc2:	84 c0                	test   al,al
    2bc4:	74 13                	je     2bd9 <_Z9ascii_artNSt7__cxx1112basic_stringIcSt11char_traitsIcESaIcEEE+0x18f0>
    2bc6:	48 8d 35 34 66 00 00 	lea    rsi,[rip+0x6634]        # 9201 <_ZStL19piecewise_construct+0x1f9>
    2bcd:	48 8d 3d 6c 84 00 00 	lea    rdi,[rip+0x846c]        # b040 <_ZSt4cout@@GLIBCXX_3.4>
    2bd4:	e8 97 e5 ff ff       	call   1170 <_ZStlsISt11char_traitsIcEERSt13basic_ostreamIcT_ES5_PKc@plt>
    2bd9:	8b 45 ac             	mov    eax,DWORD PTR [rbp-0x54]
    2bdc:	48 63 d0             	movsxd rdx,eax
    2bdf:	48 8d 45 c0          	lea    rax,[rbp-0x40]
    2be3:	48 89 d6             	mov    rsi,rdx
    2be6:	48 89 c7             	mov    rdi,rax
    2be9:	e8 02 e6 ff ff       	call   11f0 <_ZNSt7__cxx1112basic_stringIcSt11char_traitsIcESaIcEEixEm@plt>
    2bee:	0f b6 00             	movzx  eax,BYTE PTR [rax]
    2bf1:	3c 52                	cmp    al,0x52
    2bf3:	74 1c                	je     2c11 <_Z9ascii_artNSt7__cxx1112basic_stringIcSt11char_traitsIcESaIcEEE+0x1928>
    2bf5:	8b 45 ac             	mov    eax,DWORD PTR [rbp-0x54]
    2bf8:	48 63 d0             	movsxd rdx,eax
    2bfb:	48 8d 45 c0          	lea    rax,[rbp-0x40]
    2bff:	48 89 d6             	mov    rsi,rdx
    2c02:	48 89 c7             	mov    rdi,rax
    2c05:	e8 e6 e5 ff ff       	call   11f0 <_ZNSt7__cxx1112basic_stringIcSt11char_traitsIcESaIcEEixEm@plt>
    2c0a:	0f b6 00             	movzx  eax,BYTE PTR [rax]
    2c0d:	3c 72                	cmp    al,0x72
    2c0f:	75 07                	jne    2c18 <_Z9ascii_artNSt7__cxx1112basic_stringIcSt11char_traitsIcESaIcEEE+0x192f>
    2c11:	b8 01 00 00 00       	mov    eax,0x1
    2c16:	eb 05                	jmp    2c1d <_Z9ascii_artNSt7__cxx1112basic_stringIcSt11char_traitsIcESaIcEEE+0x1934>
    2c18:	b8 00 00 00 00       	mov    eax,0x0
    2c1d:	84 c0                	test   al,al
    2c1f:	74 13                	je     2c34 <_Z9ascii_artNSt7__cxx1112basic_stringIcSt11char_traitsIcESaIcEEE+0x194b>
    2c21:	48 8d 35 6c 65 00 00 	lea    rsi,[rip+0x656c]        # 9194 <_ZStL19piecewise_construct+0x18c>
    2c28:	48 8d 3d 11 84 00 00 	lea    rdi,[rip+0x8411]        # b040 <_ZSt4cout@@GLIBCXX_3.4>
    2c2f:	e8 3c e5 ff ff       	call   1170 <_ZStlsISt11char_traitsIcEERSt13basic_ostreamIcT_ES5_PKc@plt>
    2c34:	8b 45 ac             	mov    eax,DWORD PTR [rbp-0x54]
    2c37:	48 63 d0             	movsxd rdx,eax
    2c3a:	48 8d 45 c0          	lea    rax,[rbp-0x40]
    2c3e:	48 89 d6             	mov    rsi,rdx
    2c41:	48 89 c7             	mov    rdi,rax
    2c44:	e8 a7 e5 ff ff       	call   11f0 <_ZNSt7__cxx1112basic_stringIcSt11char_traitsIcESaIcEEixEm@plt>
    2c49:	0f b6 00             	movzx  eax,BYTE PTR [rax]
    2c4c:	3c 53                	cmp    al,0x53
    2c4e:	74 1c                	je     2c6c <_Z9ascii_artNSt7__cxx1112basic_stringIcSt11char_traitsIcESaIcEEE+0x1983>
    2c50:	8b 45 ac             	mov    eax,DWORD PTR [rbp-0x54]
    2c53:	48 63 d0             	movsxd rdx,eax
    2c56:	48 8d 45 c0          	lea    rax,[rbp-0x40]
    2c5a:	48 89 d6             	mov    rsi,rdx
    2c5d:	48 89 c7             	mov    rdi,rax
    2c60:	e8 8b e5 ff ff       	call   11f0 <_ZNSt7__cxx1112basic_stringIcSt11char_traitsIcESaIcEEixEm@plt>
    2c65:	0f b6 00             	movzx  eax,BYTE PTR [rax]
    2c68:	3c 73                	cmp    al,0x73
    2c6a:	75 07                	jne    2c73 <_Z9ascii_artNSt7__cxx1112basic_stringIcSt11char_traitsIcESaIcEEE+0x198a>
    2c6c:	b8 01 00 00 00       	mov    eax,0x1
    2c71:	eb 05                	jmp    2c78 <_Z9ascii_artNSt7__cxx1112basic_stringIcSt11char_traitsIcESaIcEEE+0x198f>
    2c73:	b8 00 00 00 00       	mov    eax,0x0
    2c78:	84 c0                	test   al,al
    2c7a:	74 13                	je     2c8f <_Z9ascii_artNSt7__cxx1112basic_stringIcSt11char_traitsIcESaIcEEE+0x19a6>
    2c7c:	48 8d 35 87 65 00 00 	lea    rsi,[rip+0x6587]        # 920a <_ZStL19piecewise_construct+0x202>
    2c83:	48 8d 3d b6 83 00 00 	lea    rdi,[rip+0x83b6]        # b040 <_ZSt4cout@@GLIBCXX_3.4>
    2c8a:	e8 e1 e4 ff ff       	call   1170 <_ZStlsISt11char_traitsIcEERSt13basic_ostreamIcT_ES5_PKc@plt>
    2c8f:	8b 45 ac             	mov    eax,DWORD PTR [rbp-0x54]
    2c92:	48 63 d0             	movsxd rdx,eax
    2c95:	48 8d 45 c0          	lea    rax,[rbp-0x40]
    2c99:	48 89 d6             	mov    rsi,rdx
    2c9c:	48 89 c7             	mov    rdi,rax
    2c9f:	e8 4c e5 ff ff       	call   11f0 <_ZNSt7__cxx1112basic_stringIcSt11char_traitsIcESaIcEEixEm@plt>
    2ca4:	0f b6 00             	movzx  eax,BYTE PTR [rax]
    2ca7:	3c 54                	cmp    al,0x54
    2ca9:	74 1c                	je     2cc7 <_Z9ascii_artNSt7__cxx1112basic_stringIcSt11char_traitsIcESaIcEEE+0x19de>
    2cab:	8b 45 ac             	mov    eax,DWORD PTR [rbp-0x54]
    2cae:	48 63 d0             	movsxd rdx,eax
    2cb1:	48 8d 45 c0          	lea    rax,[rbp-0x40]
    2cb5:	48 89 d6             	mov    rsi,rdx
    2cb8:	48 89 c7             	mov    rdi,rax
    2cbb:	e8 30 e5 ff ff       	call   11f0 <_ZNSt7__cxx1112basic_stringIcSt11char_traitsIcESaIcEEixEm@plt>
    2cc0:	0f b6 00             	movzx  eax,BYTE PTR [rax]
    2cc3:	3c 74                	cmp    al,0x74
    2cc5:	75 07                	jne    2cce <_Z9ascii_artNSt7__cxx1112basic_stringIcSt11char_traitsIcESaIcEEE+0x19e5>
    2cc7:	b8 01 00 00 00       	mov    eax,0x1
    2ccc:	eb 05                	jmp    2cd3 <_Z9ascii_artNSt7__cxx1112basic_stringIcSt11char_traitsIcESaIcEEE+0x19ea>
    2cce:	b8 00 00 00 00       	mov    eax,0x0
    2cd3:	84 c0                	test   al,al
    2cd5:	74 13                	je     2cea <_Z9ascii_artNSt7__cxx1112basic_stringIcSt11char_traitsIcESaIcEEE+0x1a01>
    2cd7:	48 8d 35 ec 64 00 00 	lea    rsi,[rip+0x64ec]        # 91ca <_ZStL19piecewise_construct+0x1c2>
    2cde:	48 8d 3d 5b 83 00 00 	lea    rdi,[rip+0x835b]        # b040 <_ZSt4cout@@GLIBCXX_3.4>
    2ce5:	e8 86 e4 ff ff       	call   1170 <_ZStlsISt11char_traitsIcEERSt13basic_ostreamIcT_ES5_PKc@plt>
    2cea:	8b 45 ac             	mov    eax,DWORD PTR [rbp-0x54]
    2ced:	48 63 d0             	movsxd rdx,eax
    2cf0:	48 8d 45 c0          	lea    rax,[rbp-0x40]
    2cf4:	48 89 d6             	mov    rsi,rdx
    2cf7:	48 89 c7             	mov    rdi,rax
    2cfa:	e8 f1 e4 ff ff       	call   11f0 <_ZNSt7__cxx1112basic_stringIcSt11char_traitsIcESaIcEEixEm@plt>
    2cff:	0f b6 00             	movzx  eax,BYTE PTR [rax]
    2d02:	3c 55                	cmp    al,0x55
    2d04:	74 1c                	je     2d22 <_Z9ascii_artNSt7__cxx1112basic_stringIcSt11char_traitsIcESaIcEEE+0x1a39>
    2d06:	8b 45 ac             	mov    eax,DWORD PTR [rbp-0x54]
    2d09:	48 63 d0             	movsxd rdx,eax
    2d0c:	48 8d 45 c0          	lea    rax,[rbp-0x40]
    2d10:	48 89 d6             	mov    rsi,rdx
    2d13:	48 89 c7             	mov    rdi,rax
    2d16:	e8 d5 e4 ff ff       	call   11f0 <_ZNSt7__cxx1112basic_stringIcSt11char_traitsIcESaIcEEixEm@plt>
    2d1b:	0f b6 00             	movzx  eax,BYTE PTR [rax]
    2d1e:	3c 75                	cmp    al,0x75
    2d20:	75 07                	jne    2d29 <_Z9ascii_artNSt7__cxx1112basic_stringIcSt11char_traitsIcESaIcEEE+0x1a40>
    2d22:	b8 01 00 00 00       	mov    eax,0x1
    2d27:	eb 05                	jmp    2d2e <_Z9ascii_artNSt7__cxx1112basic_stringIcSt11char_traitsIcESaIcEEE+0x1a45>
    2d29:	b8 00 00 00 00       	mov    eax,0x0
    2d2e:	84 c0                	test   al,al
    2d30:	74 13                	je     2d45 <_Z9ascii_artNSt7__cxx1112basic_stringIcSt11char_traitsIcESaIcEEE+0x1a5c>
    2d32:	48 8d 35 88 64 00 00 	lea    rsi,[rip+0x6488]        # 91c1 <_ZStL19piecewise_construct+0x1b9>
    2d39:	48 8d 3d 00 83 00 00 	lea    rdi,[rip+0x8300]        # b040 <_ZSt4cout@@GLIBCXX_3.4>
    2d40:	e8 2b e4 ff ff       	call   1170 <_ZStlsISt11char_traitsIcEERSt13basic_ostreamIcT_ES5_PKc@plt>
    2d45:	8b 45 ac             	mov    eax,DWORD PTR [rbp-0x54]
    2d48:	48 63 d0             	movsxd rdx,eax
    2d4b:	48 8d 45 c0          	lea    rax,[rbp-0x40]
    2d4f:	48 89 d6             	mov    rsi,rdx
    2d52:	48 89 c7             	mov    rdi,rax
    2d55:	e8 96 e4 ff ff       	call   11f0 <_ZNSt7__cxx1112basic_stringIcSt11char_traitsIcESaIcEEixEm@plt>
    2d5a:	0f b6 00             	movzx  eax,BYTE PTR [rax]
    2d5d:	3c 56                	cmp    al,0x56
    2d5f:	74 1c                	je     2d7d <_Z9ascii_artNSt7__cxx1112basic_stringIcSt11char_traitsIcESaIcEEE+0x1a94>
    2d61:	8b 45 ac             	mov    eax,DWORD PTR [rbp-0x54]
    2d64:	48 63 d0             	movsxd rdx,eax
    2d67:	48 8d 45 c0          	lea    rax,[rbp-0x40]
    2d6b:	48 89 d6             	mov    rsi,rdx
    2d6e:	48 89 c7             	mov    rdi,rax
    2d71:	e8 7a e4 ff ff       	call   11f0 <_ZNSt7__cxx1112basic_stringIcSt11char_traitsIcESaIcEEixEm@plt>
    2d76:	0f b6 00             	movzx  eax,BYTE PTR [rax]
    2d79:	3c 76                	cmp    al,0x76
    2d7b:	75 07                	jne    2d84 <_Z9ascii_artNSt7__cxx1112basic_stringIcSt11char_traitsIcESaIcEEE+0x1a9b>
    2d7d:	b8 01 00 00 00       	mov    eax,0x1
    2d82:	eb 05                	jmp    2d89 <_Z9ascii_artNSt7__cxx1112basic_stringIcSt11char_traitsIcESaIcEEE+0x1aa0>
    2d84:	b8 00 00 00 00       	mov    eax,0x0
    2d89:	84 c0                	test   al,al
    2d8b:	74 13                	je     2da0 <_Z9ascii_artNSt7__cxx1112basic_stringIcSt11char_traitsIcESaIcEEE+0x1ab7>
    2d8d:	48 8d 35 2d 64 00 00 	lea    rsi,[rip+0x642d]        # 91c1 <_ZStL19piecewise_construct+0x1b9>
    2d94:	48 8d 3d a5 82 00 00 	lea    rdi,[rip+0x82a5]        # b040 <_ZSt4cout@@GLIBCXX_3.4>
    2d9b:	e8 d0 e3 ff ff       	call   1170 <_ZStlsISt11char_traitsIcEERSt13basic_ostreamIcT_ES5_PKc@plt>
    2da0:	8b 45 ac             	mov    eax,DWORD PTR [rbp-0x54]
    2da3:	48 63 d0             	movsxd rdx,eax
    2da6:	48 8d 45 c0          	lea    rax,[rbp-0x40]
    2daa:	48 89 d6             	mov    rsi,rdx
    2dad:	48 89 c7             	mov    rdi,rax
    2db0:	e8 3b e4 ff ff       	call   11f0 <_ZNSt7__cxx1112basic_stringIcSt11char_traitsIcESaIcEEixEm@plt>
    2db5:	0f b6 00             	movzx  eax,BYTE PTR [rax]
    2db8:	3c 57                	cmp    al,0x57
    2dba:	74 1c                	je     2dd8 <_Z9ascii_artNSt7__cxx1112basic_stringIcSt11char_traitsIcESaIcEEE+0x1aef>
    2dbc:	8b 45 ac             	mov    eax,DWORD PTR [rbp-0x54]
    2dbf:	48 63 d0             	movsxd rdx,eax
    2dc2:	48 8d 45 c0          	lea    rax,[rbp-0x40]
    2dc6:	48 89 d6             	mov    rsi,rdx
    2dc9:	48 89 c7             	mov    rdi,rax
    2dcc:	e8 1f e4 ff ff       	call   11f0 <_ZNSt7__cxx1112basic_stringIcSt11char_traitsIcESaIcEEixEm@plt>
    2dd1:	0f b6 00             	movzx  eax,BYTE PTR [rax]
    2dd4:	3c 77                	cmp    al,0x77
    2dd6:	75 07                	jne    2ddf <_Z9ascii_artNSt7__cxx1112basic_stringIcSt11char_traitsIcESaIcEEE+0x1af6>
    2dd8:	b8 01 00 00 00       	mov    eax,0x1
    2ddd:	eb 05                	jmp    2de4 <_Z9ascii_artNSt7__cxx1112basic_stringIcSt11char_traitsIcESaIcEEE+0x1afb>
    2ddf:	b8 00 00 00 00       	mov    eax,0x0
    2de4:	84 c0                	test   al,al
    2de6:	74 13                	je     2dfb <_Z9ascii_artNSt7__cxx1112basic_stringIcSt11char_traitsIcESaIcEEE+0x1b12>
    2de8:	48 8d 35 24 64 00 00 	lea    rsi,[rip+0x6424]        # 9213 <_ZStL19piecewise_construct+0x20b>
    2def:	48 8d 3d 4a 82 00 00 	lea    rdi,[rip+0x824a]        # b040 <_ZSt4cout@@GLIBCXX_3.4>
    2df6:	e8 75 e3 ff ff       	call   1170 <_ZStlsISt11char_traitsIcEERSt13basic_ostreamIcT_ES5_PKc@plt>
    2dfb:	8b 45 ac             	mov    eax,DWORD PTR [rbp-0x54]
    2dfe:	48 63 d0             	movsxd rdx,eax
    2e01:	48 8d 45 c0          	lea    rax,[rbp-0x40]
    2e05:	48 89 d6             	mov    rsi,rdx
    2e08:	48 89 c7             	mov    rdi,rax
    2e0b:	e8 e0 e3 ff ff       	call   11f0 <_ZNSt7__cxx1112basic_stringIcSt11char_traitsIcESaIcEEixEm@plt>
    2e10:	0f b6 00             	movzx  eax,BYTE PTR [rax]
    2e13:	3c 58                	cmp    al,0x58
    2e15:	74 1c                	je     2e33 <_Z9ascii_artNSt7__cxx1112basic_stringIcSt11char_traitsIcESaIcEEE+0x1b4a>
    2e17:	8b 45 ac             	mov    eax,DWORD PTR [rbp-0x54]
    2e1a:	48 63 d0             	movsxd rdx,eax
    2e1d:	48 8d 45 c0          	lea    rax,[rbp-0x40]
    2e21:	48 89 d6             	mov    rsi,rdx
    2e24:	48 89 c7             	mov    rdi,rax
    2e27:	e8 c4 e3 ff ff       	call   11f0 <_ZNSt7__cxx1112basic_stringIcSt11char_traitsIcESaIcEEixEm@plt>
    2e2c:	0f b6 00             	movzx  eax,BYTE PTR [rax]
    2e2f:	3c 78                	cmp    al,0x78
    2e31:	75 07                	jne    2e3a <_Z9ascii_artNSt7__cxx1112basic_stringIcSt11char_traitsIcESaIcEEE+0x1b51>
    2e33:	b8 01 00 00 00       	mov    eax,0x1
    2e38:	eb 05                	jmp    2e3f <_Z9ascii_artNSt7__cxx1112basic_stringIcSt11char_traitsIcESaIcEEE+0x1b56>
    2e3a:	b8 00 00 00 00       	mov    eax,0x0
    2e3f:	84 c0                	test   al,al
    2e41:	74 13                	je     2e56 <_Z9ascii_artNSt7__cxx1112basic_stringIcSt11char_traitsIcESaIcEEE+0x1b6d>
    2e43:	48 8d 35 d3 63 00 00 	lea    rsi,[rip+0x63d3]        # 921d <_ZStL19piecewise_construct+0x215>
    2e4a:	48 8d 3d ef 81 00 00 	lea    rdi,[rip+0x81ef]        # b040 <_ZSt4cout@@GLIBCXX_3.4>
    2e51:	e8 1a e3 ff ff       	call   1170 <_ZStlsISt11char_traitsIcEERSt13basic_ostreamIcT_ES5_PKc@plt>
    2e56:	8b 45 ac             	mov    eax,DWORD PTR [rbp-0x54]
    2e59:	48 63 d0             	movsxd rdx,eax
    2e5c:	48 8d 45 c0          	lea    rax,[rbp-0x40]
    2e60:	48 89 d6             	mov    rsi,rdx
    2e63:	48 89 c7             	mov    rdi,rax
    2e66:	e8 85 e3 ff ff       	call   11f0 <_ZNSt7__cxx1112basic_stringIcSt11char_traitsIcESaIcEEixEm@plt>
    2e6b:	0f b6 00             	movzx  eax,BYTE PTR [rax]
    2e6e:	3c 59                	cmp    al,0x59
    2e70:	74 1c                	je     2e8e <_Z9ascii_artNSt7__cxx1112basic_stringIcSt11char_traitsIcESaIcEEE+0x1ba5>
    2e72:	8b 45 ac             	mov    eax,DWORD PTR [rbp-0x54]
    2e75:	48 63 d0             	movsxd rdx,eax
    2e78:	48 8d 45 c0          	lea    rax,[rbp-0x40]
    2e7c:	48 89 d6             	mov    rsi,rdx
    2e7f:	48 89 c7             	mov    rdi,rax
    2e82:	e8 69 e3 ff ff       	call   11f0 <_ZNSt7__cxx1112basic_stringIcSt11char_traitsIcESaIcEEixEm@plt>
    2e87:	0f b6 00             	movzx  eax,BYTE PTR [rax]
    2e8a:	3c 79                	cmp    al,0x79
    2e8c:	75 07                	jne    2e95 <_Z9ascii_artNSt7__cxx1112basic_stringIcSt11char_traitsIcESaIcEEE+0x1bac>
    2e8e:	b8 01 00 00 00       	mov    eax,0x1
    2e93:	eb 05                	jmp    2e9a <_Z9ascii_artNSt7__cxx1112basic_stringIcSt11char_traitsIcESaIcEEE+0x1bb1>
    2e95:	b8 00 00 00 00       	mov    eax,0x0
    2e9a:	84 c0                	test   al,al
    2e9c:	74 13                	je     2eb1 <_Z9ascii_artNSt7__cxx1112basic_stringIcSt11char_traitsIcESaIcEEE+0x1bc8>
    2e9e:	48 8d 35 78 63 00 00 	lea    rsi,[rip+0x6378]        # 921d <_ZStL19piecewise_construct+0x215>
    2ea5:	48 8d 3d 94 81 00 00 	lea    rdi,[rip+0x8194]        # b040 <_ZSt4cout@@GLIBCXX_3.4>
    2eac:	e8 bf e2 ff ff       	call   1170 <_ZStlsISt11char_traitsIcEERSt13basic_ostreamIcT_ES5_PKc@plt>
    2eb1:	8b 45 ac             	mov    eax,DWORD PTR [rbp-0x54]
    2eb4:	48 63 d0             	movsxd rdx,eax
    2eb7:	48 8d 45 c0          	lea    rax,[rbp-0x40]
    2ebb:	48 89 d6             	mov    rsi,rdx
    2ebe:	48 89 c7             	mov    rdi,rax
    2ec1:	e8 2a e3 ff ff       	call   11f0 <_ZNSt7__cxx1112basic_stringIcSt11char_traitsIcESaIcEEixEm@plt>
    2ec6:	0f b6 00             	movzx  eax,BYTE PTR [rax]
    2ec9:	3c 5a                	cmp    al,0x5a
    2ecb:	74 1c                	je     2ee9 <_Z9ascii_artNSt7__cxx1112basic_stringIcSt11char_traitsIcESaIcEEE+0x1c00>
    2ecd:	8b 45 ac             	mov    eax,DWORD PTR [rbp-0x54]
    2ed0:	48 63 d0             	movsxd rdx,eax
    2ed3:	48 8d 45 c0          	lea    rax,[rbp-0x40]
    2ed7:	48 89 d6             	mov    rsi,rdx
    2eda:	48 89 c7             	mov    rdi,rax
    2edd:	e8 0e e3 ff ff       	call   11f0 <_ZNSt7__cxx1112basic_stringIcSt11char_traitsIcESaIcEEixEm@plt>
    2ee2:	0f b6 00             	movzx  eax,BYTE PTR [rax]
    2ee5:	3c 7a                	cmp    al,0x7a
    2ee7:	75 07                	jne    2ef0 <_Z9ascii_artNSt7__cxx1112basic_stringIcSt11char_traitsIcESaIcEEE+0x1c07>
    2ee9:	b8 01 00 00 00       	mov    eax,0x1
    2eee:	eb 05                	jmp    2ef5 <_Z9ascii_artNSt7__cxx1112basic_stringIcSt11char_traitsIcESaIcEEE+0x1c0c>
    2ef0:	b8 00 00 00 00       	mov    eax,0x0
    2ef5:	84 c0                	test   al,al
    2ef7:	74 13                	je     2f0c <_Z9ascii_artNSt7__cxx1112basic_stringIcSt11char_traitsIcESaIcEEE+0x1c23>
    2ef9:	48 8d 35 26 63 00 00 	lea    rsi,[rip+0x6326]        # 9226 <_ZStL19piecewise_construct+0x21e>
    2f00:	48 8d 3d 39 81 00 00 	lea    rdi,[rip+0x8139]        # b040 <_ZSt4cout@@GLIBCXX_3.4>
    2f07:	e8 64 e2 ff ff       	call   1170 <_ZStlsISt11char_traitsIcEERSt13basic_ostreamIcT_ES5_PKc@plt>
    2f0c:	8b 45 ac             	mov    eax,DWORD PTR [rbp-0x54]
    2f0f:	48 63 d0             	movsxd rdx,eax
    2f12:	48 8d 45 c0          	lea    rax,[rbp-0x40]
    2f16:	48 89 d6             	mov    rsi,rdx
    2f19:	48 89 c7             	mov    rdi,rax
    2f1c:	e8 cf e2 ff ff       	call   11f0 <_ZNSt7__cxx1112basic_stringIcSt11char_traitsIcESaIcEEixEm@plt>
    2f21:	0f b6 00             	movzx  eax,BYTE PTR [rax]
    2f24:	3c 20                	cmp    al,0x20
    2f26:	0f 94 c0             	sete   al
    2f29:	84 c0                	test   al,al
    2f2b:	74 13                	je     2f40 <_Z9ascii_artNSt7__cxx1112basic_stringIcSt11char_traitsIcESaIcEEE+0x1c57>
    2f2d:	48 8d 35 af 61 00 00 	lea    rsi,[rip+0x61af]        # 90e3 <_ZStL19piecewise_construct+0xdb>
    2f34:	48 8d 3d 05 81 00 00 	lea    rdi,[rip+0x8105]        # b040 <_ZSt4cout@@GLIBCXX_3.4>
    2f3b:	e8 30 e2 ff ff       	call   1170 <_ZStlsISt11char_traitsIcEERSt13basic_ostreamIcT_ES5_PKc@plt>
    2f40:	8b 45 ac             	mov    eax,DWORD PTR [rbp-0x54]
    2f43:	48 63 d0             	movsxd rdx,eax
    2f46:	48 8d 45 c0          	lea    rax,[rbp-0x40]
    2f4a:	48 89 d6             	mov    rsi,rdx
    2f4d:	48 89 c7             	mov    rdi,rax
    2f50:	e8 9b e2 ff ff       	call   11f0 <_ZNSt7__cxx1112basic_stringIcSt11char_traitsIcESaIcEEixEm@plt>
    2f55:	0f b6 00             	movzx  eax,BYTE PTR [rax]
    2f58:	3c 60                	cmp    al,0x60
    2f5a:	0f 94 c0             	sete   al
    2f5d:	84 c0                	test   al,al
    2f5f:	74 13                	je     2f74 <_Z9ascii_artNSt7__cxx1112basic_stringIcSt11char_traitsIcESaIcEEE+0x1c8b>
    2f61:	48 8d 35 c7 62 00 00 	lea    rsi,[rip+0x62c7]        # 922f <_ZStL19piecewise_construct+0x227>
    2f68:	48 8d 3d d1 80 00 00 	lea    rdi,[rip+0x80d1]        # b040 <_ZSt4cout@@GLIBCXX_3.4>
    2f6f:	e8 fc e1 ff ff       	call   1170 <_ZStlsISt11char_traitsIcEERSt13basic_ostreamIcT_ES5_PKc@plt>
    2f74:	8b 45 ac             	mov    eax,DWORD PTR [rbp-0x54]
    2f77:	48 63 d0             	movsxd rdx,eax
    2f7a:	48 8d 45 c0          	lea    rax,[rbp-0x40]
    2f7e:	48 89 d6             	mov    rsi,rdx
    2f81:	48 89 c7             	mov    rdi,rax
    2f84:	e8 67 e2 ff ff       	call   11f0 <_ZNSt7__cxx1112basic_stringIcSt11char_traitsIcESaIcEEixEm@plt>
    2f89:	0f b6 00             	movzx  eax,BYTE PTR [rax]
    2f8c:	3c 7e                	cmp    al,0x7e
    2f8e:	0f 94 c0             	sete   al
    2f91:	84 c0                	test   al,al
    2f93:	74 13                	je     2fa8 <_Z9ascii_artNSt7__cxx1112basic_stringIcSt11char_traitsIcESaIcEEE+0x1cbf>
    2f95:	48 8d 35 4f 61 00 00 	lea    rsi,[rip+0x614f]        # 90eb <_ZStL19piecewise_construct+0xe3>
    2f9c:	48 8d 3d 9d 80 00 00 	lea    rdi,[rip+0x809d]        # b040 <_ZSt4cout@@GLIBCXX_3.4>
    2fa3:	e8 c8 e1 ff ff       	call   1170 <_ZStlsISt11char_traitsIcEERSt13basic_ostreamIcT_ES5_PKc@plt>
    2fa8:	8b 45 ac             	mov    eax,DWORD PTR [rbp-0x54]
    2fab:	48 63 d0             	movsxd rdx,eax
    2fae:	48 8d 45 c0          	lea    rax,[rbp-0x40]
    2fb2:	48 89 d6             	mov    rsi,rdx
    2fb5:	48 89 c7             	mov    rdi,rax
    2fb8:	e8 33 e2 ff ff       	call   11f0 <_ZNSt7__cxx1112basic_stringIcSt11char_traitsIcESaIcEEixEm@plt>
    2fbd:	0f b6 00             	movzx  eax,BYTE PTR [rax]
    2fc0:	3c 31                	cmp    al,0x31
    2fc2:	0f 94 c0             	sete   al
    2fc5:	84 c0                	test   al,al
    2fc7:	74 13                	je     2fdc <_Z9ascii_artNSt7__cxx1112basic_stringIcSt11char_traitsIcESaIcEEE+0x1cf3>
    2fc9:	48 8d 35 64 62 00 00 	lea    rsi,[rip+0x6264]        # 9234 <_ZStL19piecewise_construct+0x22c>
    2fd0:	48 8d 3d 69 80 00 00 	lea    rdi,[rip+0x8069]        # b040 <_ZSt4cout@@GLIBCXX_3.4>
    2fd7:	e8 94 e1 ff ff       	call   1170 <_ZStlsISt11char_traitsIcEERSt13basic_ostreamIcT_ES5_PKc@plt>
    2fdc:	8b 45 ac             	mov    eax,DWORD PTR [rbp-0x54]
    2fdf:	48 63 d0             	movsxd rdx,eax
    2fe2:	48 8d 45 c0          	lea    rax,[rbp-0x40]
    2fe6:	48 89 d6             	mov    rsi,rdx
    2fe9:	48 89 c7             	mov    rdi,rax
    2fec:	e8 ff e1 ff ff       	call   11f0 <_ZNSt7__cxx1112basic_stringIcSt11char_traitsIcESaIcEEixEm@plt>
    2ff1:	0f b6 00             	movzx  eax,BYTE PTR [rax]
    2ff4:	3c 32                	cmp    al,0x32
    2ff6:	0f 94 c0             	sete   al
    2ff9:	84 c0                	test   al,al
    2ffb:	74 13                	je     3010 <_Z9ascii_artNSt7__cxx1112basic_stringIcSt11char_traitsIcESaIcEEE+0x1d27>
    2ffd:	48 8d 35 37 62 00 00 	lea    rsi,[rip+0x6237]        # 923b <_ZStL19piecewise_construct+0x233>
    3004:	48 8d 3d 35 80 00 00 	lea    rdi,[rip+0x8035]        # b040 <_ZSt4cout@@GLIBCXX_3.4>
    300b:	e8 60 e1 ff ff       	call   1170 <_ZStlsISt11char_traitsIcEERSt13basic_ostreamIcT_ES5_PKc@plt>
    3010:	8b 45 ac             	mov    eax,DWORD PTR [rbp-0x54]
    3013:	48 63 d0             	movsxd rdx,eax
    3016:	48 8d 45 c0          	lea    rax,[rbp-0x40]
    301a:	48 89 d6             	mov    rsi,rdx
    301d:	48 89 c7             	mov    rdi,rax
    3020:	e8 cb e1 ff ff       	call   11f0 <_ZNSt7__cxx1112basic_stringIcSt11char_traitsIcESaIcEEixEm@plt>
    3025:	0f b6 00             	movzx  eax,BYTE PTR [rax]
    3028:	3c 33                	cmp    al,0x33
    302a:	0f 94 c0             	sete   al
    302d:	84 c0                	test   al,al
    302f:	74 13                	je     3044 <_Z9ascii_artNSt7__cxx1112basic_stringIcSt11char_traitsIcESaIcEEE+0x1d5b>
    3031:	48 8d 35 0c 62 00 00 	lea    rsi,[rip+0x620c]        # 9244 <_ZStL19piecewise_construct+0x23c>
    3038:	48 8d 3d 01 80 00 00 	lea    rdi,[rip+0x8001]        # b040 <_ZSt4cout@@GLIBCXX_3.4>
    303f:	e8 2c e1 ff ff       	call   1170 <_ZStlsISt11char_traitsIcEERSt13basic_ostreamIcT_ES5_PKc@plt>
    3044:	8b 45 ac             	mov    eax,DWORD PTR [rbp-0x54]
    3047:	48 63 d0             	movsxd rdx,eax
    304a:	48 8d 45 c0          	lea    rax,[rbp-0x40]
    304e:	48 89 d6             	mov    rsi,rdx
    3051:	48 89 c7             	mov    rdi,rax
    3054:	e8 97 e1 ff ff       	call   11f0 <_ZNSt7__cxx1112basic_stringIcSt11char_traitsIcESaIcEEixEm@plt>
    3059:	0f b6 00             	movzx  eax,BYTE PTR [rax]
    305c:	3c 34                	cmp    al,0x34
    305e:	0f 94 c0             	sete   al
    3061:	84 c0                	test   al,al
    3063:	74 13                	je     3078 <_Z9ascii_artNSt7__cxx1112basic_stringIcSt11char_traitsIcESaIcEEE+0x1d8f>
    3065:	48 8d 35 e1 61 00 00 	lea    rsi,[rip+0x61e1]        # 924d <_ZStL19piecewise_construct+0x245>
    306c:	48 8d 3d cd 7f 00 00 	lea    rdi,[rip+0x7fcd]        # b040 <_ZSt4cout@@GLIBCXX_3.4>
    3073:	e8 f8 e0 ff ff       	call   1170 <_ZStlsISt11char_traitsIcEERSt13basic_ostreamIcT_ES5_PKc@plt>
    3078:	8b 45 ac             	mov    eax,DWORD PTR [rbp-0x54]
    307b:	48 63 d0             	movsxd rdx,eax
    307e:	48 8d 45 c0          	lea    rax,[rbp-0x40]
    3082:	48 89 d6             	mov    rsi,rdx
    3085:	48 89 c7             	mov    rdi,rax
    3088:	e8 63 e1 ff ff       	call   11f0 <_ZNSt7__cxx1112basic_stringIcSt11char_traitsIcESaIcEEixEm@plt>
    308d:	0f b6 00             	movzx  eax,BYTE PTR [rax]
    3090:	3c 35                	cmp    al,0x35
    3092:	0f 94 c0             	sete   al
    3095:	84 c0                	test   al,al
    3097:	74 13                	je     30ac <_Z9ascii_artNSt7__cxx1112basic_stringIcSt11char_traitsIcESaIcEEE+0x1dc3>
    3099:	48 8d 35 0f 61 00 00 	lea    rsi,[rip+0x610f]        # 91af <_ZStL19piecewise_construct+0x1a7>
    30a0:	48 8d 3d 99 7f 00 00 	lea    rdi,[rip+0x7f99]        # b040 <_ZSt4cout@@GLIBCXX_3.4>
    30a7:	e8 c4 e0 ff ff       	call   1170 <_ZStlsISt11char_traitsIcEERSt13basic_ostreamIcT_ES5_PKc@plt>
    30ac:	8b 45 ac             	mov    eax,DWORD PTR [rbp-0x54]
    30af:	48 63 d0             	movsxd rdx,eax
    30b2:	48 8d 45 c0          	lea    rax,[rbp-0x40]
    30b6:	48 89 d6             	mov    rsi,rdx
    30b9:	48 89 c7             	mov    rdi,rax
    30bc:	e8 2f e1 ff ff       	call   11f0 <_ZNSt7__cxx1112basic_stringIcSt11char_traitsIcESaIcEEixEm@plt>
    30c1:	0f b6 00             	movzx  eax,BYTE PTR [rax]
    30c4:	3c 36                	cmp    al,0x36
    30c6:	0f 94 c0             	sete   al
    30c9:	84 c0                	test   al,al
    30cb:	74 13                	je     30e0 <_Z9ascii_artNSt7__cxx1112basic_stringIcSt11char_traitsIcESaIcEEE+0x1df7>
    30cd:	48 8d 35 82 61 00 00 	lea    rsi,[rip+0x6182]        # 9256 <_ZStL19piecewise_construct+0x24e>
    30d4:	48 8d 3d 65 7f 00 00 	lea    rdi,[rip+0x7f65]        # b040 <_ZSt4cout@@GLIBCXX_3.4>
    30db:	e8 90 e0 ff ff       	call   1170 <_ZStlsISt11char_traitsIcEERSt13basic_ostreamIcT_ES5_PKc@plt>
    30e0:	8b 45 ac             	mov    eax,DWORD PTR [rbp-0x54]
    30e3:	48 63 d0             	movsxd rdx,eax
    30e6:	48 8d 45 c0          	lea    rax,[rbp-0x40]
    30ea:	48 89 d6             	mov    rsi,rdx
    30ed:	48 89 c7             	mov    rdi,rax
    30f0:	e8 fb e0 ff ff       	call   11f0 <_ZNSt7__cxx1112basic_stringIcSt11char_traitsIcESaIcEEixEm@plt>
    30f5:	0f b6 00             	movzx  eax,BYTE PTR [rax]
    30f8:	3c 37                	cmp    al,0x37
    30fa:	0f 94 c0             	sete   al
    30fd:	84 c0                	test   al,al
    30ff:	74 13                	je     3114 <_Z9ascii_artNSt7__cxx1112basic_stringIcSt11char_traitsIcESaIcEEE+0x1e2b>
    3101:	48 8d 35 1e 61 00 00 	lea    rsi,[rip+0x611e]        # 9226 <_ZStL19piecewise_construct+0x21e>
    3108:	48 8d 3d 31 7f 00 00 	lea    rdi,[rip+0x7f31]        # b040 <_ZSt4cout@@GLIBCXX_3.4>
    310f:	e8 5c e0 ff ff       	call   1170 <_ZStlsISt11char_traitsIcEERSt13basic_ostreamIcT_ES5_PKc@plt>
    3114:	8b 45 ac             	mov    eax,DWORD PTR [rbp-0x54]
    3117:	48 63 d0             	movsxd rdx,eax
    311a:	48 8d 45 c0          	lea    rax,[rbp-0x40]
    311e:	48 89 d6             	mov    rsi,rdx
    3121:	48 89 c7             	mov    rdi,rax
    3124:	e8 c7 e0 ff ff       	call   11f0 <_ZNSt7__cxx1112basic_stringIcSt11char_traitsIcESaIcEEixEm@plt>
    3129:	0f b6 00             	movzx  eax,BYTE PTR [rax]
    312c:	3c 2e                	cmp    al,0x2e
    312e:	0f 94 c0             	sete   al
    3131:	84 c0                	test   al,al
    3133:	74 13                	je     3148 <_Z9ascii_artNSt7__cxx1112basic_stringIcSt11char_traitsIcESaIcEEE+0x1e5f>
    3135:	48 8d 35 c6 5f 00 00 	lea    rsi,[rip+0x5fc6]        # 9102 <_ZStL19piecewise_construct+0xfa>
    313c:	48 8d 3d fd 7e 00 00 	lea    rdi,[rip+0x7efd]        # b040 <_ZSt4cout@@GLIBCXX_3.4>
    3143:	e8 28 e0 ff ff       	call   1170 <_ZStlsISt11char_traitsIcEERSt13basic_ostreamIcT_ES5_PKc@plt>
    3148:	8b 45 ac             	mov    eax,DWORD PTR [rbp-0x54]
    314b:	48 63 d0             	movsxd rdx,eax
    314e:	48 8d 45 c0          	lea    rax,[rbp-0x40]
    3152:	48 89 d6             	mov    rsi,rdx
    3155:	48 89 c7             	mov    rdi,rax
    3158:	e8 93 e0 ff ff       	call   11f0 <_ZNSt7__cxx1112basic_stringIcSt11char_traitsIcESaIcEEixEm@plt>
    315d:	0f b6 00             	movzx  eax,BYTE PTR [rax]
    3160:	3c 38                	cmp    al,0x38
    3162:	0f 94 c0             	sete   al
    3165:	84 c0                	test   al,al
    3167:	74 13                	je     317c <_Z9ascii_artNSt7__cxx1112basic_stringIcSt11char_traitsIcESaIcEEE+0x1e93>
    3169:	48 8d 35 91 60 00 00 	lea    rsi,[rip+0x6091]        # 9201 <_ZStL19piecewise_construct+0x1f9>
    3170:	48 8d 3d c9 7e 00 00 	lea    rdi,[rip+0x7ec9]        # b040 <_ZSt4cout@@GLIBCXX_3.4>
    3177:	e8 f4 df ff ff       	call   1170 <_ZStlsISt11char_traitsIcEERSt13basic_ostreamIcT_ES5_PKc@plt>
    317c:	8b 45 ac             	mov    eax,DWORD PTR [rbp-0x54]
    317f:	48 63 d0             	movsxd rdx,eax
    3182:	48 8d 45 c0          	lea    rax,[rbp-0x40]
    3186:	48 89 d6             	mov    rsi,rdx
    3189:	48 89 c7             	mov    rdi,rax
    318c:	e8 5f e0 ff ff       	call   11f0 <_ZNSt7__cxx1112basic_stringIcSt11char_traitsIcESaIcEEixEm@plt>
    3191:	0f b6 00             	movzx  eax,BYTE PTR [rax]
    3194:	3c 39                	cmp    al,0x39
    3196:	0f 94 c0             	sete   al
    3199:	84 c0                	test   al,al
    319b:	74 13                	je     31b0 <_Z9ascii_artNSt7__cxx1112basic_stringIcSt11char_traitsIcESaIcEEE+0x1ec7>
    319d:	48 8d 35 5d 60 00 00 	lea    rsi,[rip+0x605d]        # 9201 <_ZStL19piecewise_construct+0x1f9>
    31a4:	48 8d 3d 95 7e 00 00 	lea    rdi,[rip+0x7e95]        # b040 <_ZSt4cout@@GLIBCXX_3.4>
    31ab:	e8 c0 df ff ff       	call   1170 <_ZStlsISt11char_traitsIcEERSt13basic_ostreamIcT_ES5_PKc@plt>
    31b0:	8b 45 ac             	mov    eax,DWORD PTR [rbp-0x54]
    31b3:	48 63 d0             	movsxd rdx,eax
    31b6:	48 8d 45 c0          	lea    rax,[rbp-0x40]
    31ba:	48 89 d6             	mov    rsi,rdx
    31bd:	48 89 c7             	mov    rdi,rax
    31c0:	e8 2b e0 ff ff       	call   11f0 <_ZNSt7__cxx1112basic_stringIcSt11char_traitsIcESaIcEEixEm@plt>
    31c5:	0f b6 00             	movzx  eax,BYTE PTR [rax]
    31c8:	3c 30                	cmp    al,0x30
    31ca:	0f 94 c0             	sete   al
    31cd:	84 c0                	test   al,al
    31cf:	74 13                	je     31e4 <_Z9ascii_artNSt7__cxx1112basic_stringIcSt11char_traitsIcESaIcEEE+0x1efb>
    31d1:	48 8d 35 29 60 00 00 	lea    rsi,[rip+0x6029]        # 9201 <_ZStL19piecewise_construct+0x1f9>
    31d8:	48 8d 3d 61 7e 00 00 	lea    rdi,[rip+0x7e61]        # b040 <_ZSt4cout@@GLIBCXX_3.4>
    31df:	e8 8c df ff ff       	call   1170 <_ZStlsISt11char_traitsIcEERSt13basic_ostreamIcT_ES5_PKc@plt>
    31e4:	8b 45 ac             	mov    eax,DWORD PTR [rbp-0x54]
    31e7:	48 63 d0             	movsxd rdx,eax
    31ea:	48 8d 45 c0          	lea    rax,[rbp-0x40]
    31ee:	48 89 d6             	mov    rsi,rdx
    31f1:	48 89 c7             	mov    rdi,rax
    31f4:	e8 f7 df ff ff       	call   11f0 <_ZNSt7__cxx1112basic_stringIcSt11char_traitsIcESaIcEEixEm@plt>
    31f9:	0f b6 00             	movzx  eax,BYTE PTR [rax]
    31fc:	3c 21                	cmp    al,0x21
    31fe:	0f 94 c0             	sete   al
    3201:	84 c0                	test   al,al
    3203:	74 13                	je     3218 <_Z9ascii_artNSt7__cxx1112basic_stringIcSt11char_traitsIcESaIcEEE+0x1f2f>
    3205:	48 8d 35 53 60 00 00 	lea    rsi,[rip+0x6053]        # 925f <_ZStL19piecewise_construct+0x257>
    320c:	48 8d 3d 2d 7e 00 00 	lea    rdi,[rip+0x7e2d]        # b040 <_ZSt4cout@@GLIBCXX_3.4>
    3213:	e8 58 df ff ff       	call   1170 <_ZStlsISt11char_traitsIcEERSt13basic_ostreamIcT_ES5_PKc@plt>
    3218:	8b 45 ac             	mov    eax,DWORD PTR [rbp-0x54]
    321b:	48 63 d0             	movsxd rdx,eax
    321e:	48 8d 45 c0          	lea    rax,[rbp-0x40]
    3222:	48 89 d6             	mov    rsi,rdx
    3225:	48 89 c7             	mov    rdi,rax
    3228:	e8 c3 df ff ff       	call   11f0 <_ZNSt7__cxx1112basic_stringIcSt11char_traitsIcESaIcEEixEm@plt>
    322d:	0f b6 00             	movzx  eax,BYTE PTR [rax]
    3230:	3c 40                	cmp    al,0x40
    3232:	0f 94 c0             	sete   al
    3235:	84 c0                	test   al,al
    3237:	74 13                	je     324c <_Z9ascii_artNSt7__cxx1112basic_stringIcSt11char_traitsIcESaIcEEE+0x1f63>
    3239:	48 8d 35 24 60 00 00 	lea    rsi,[rip+0x6024]        # 9264 <_ZStL19piecewise_construct+0x25c>
    3240:	48 8d 3d f9 7d 00 00 	lea    rdi,[rip+0x7df9]        # b040 <_ZSt4cout@@GLIBCXX_3.4>
    3247:	e8 24 df ff ff       	call   1170 <_ZStlsISt11char_traitsIcEERSt13basic_ostreamIcT_ES5_PKc@plt>
    324c:	8b 45 ac             	mov    eax,DWORD PTR [rbp-0x54]
    324f:	48 63 d0             	movsxd rdx,eax
    3252:	48 8d 45 c0          	lea    rax,[rbp-0x40]
    3256:	48 89 d6             	mov    rsi,rdx
    3259:	48 89 c7             	mov    rdi,rax
    325c:	e8 8f df ff ff       	call   11f0 <_ZNSt7__cxx1112basic_stringIcSt11char_traitsIcESaIcEEixEm@plt>
    3261:	0f b6 00             	movzx  eax,BYTE PTR [rax]
    3264:	3c 23                	cmp    al,0x23
    3266:	0f 94 c0             	sete   al
    3269:	84 c0                	test   al,al
    326b:	74 13                	je     3280 <_Z9ascii_artNSt7__cxx1112basic_stringIcSt11char_traitsIcESaIcEEE+0x1f97>
    326d:	48 8d 35 fb 5f 00 00 	lea    rsi,[rip+0x5ffb]        # 926f <_ZStL19piecewise_construct+0x267>
    3274:	48 8d 3d c5 7d 00 00 	lea    rdi,[rip+0x7dc5]        # b040 <_ZSt4cout@@GLIBCXX_3.4>
    327b:	e8 f0 de ff ff       	call   1170 <_ZStlsISt11char_traitsIcEERSt13basic_ostreamIcT_ES5_PKc@plt>
    3280:	8b 45 ac             	mov    eax,DWORD PTR [rbp-0x54]
    3283:	48 63 d0             	movsxd rdx,eax
    3286:	48 8d 45 c0          	lea    rax,[rbp-0x40]
    328a:	48 89 d6             	mov    rsi,rdx
    328d:	48 89 c7             	mov    rdi,rax
    3290:	e8 5b df ff ff       	call   11f0 <_ZNSt7__cxx1112basic_stringIcSt11char_traitsIcESaIcEEixEm@plt>
    3295:	0f b6 00             	movzx  eax,BYTE PTR [rax]
    3298:	3c 24                	cmp    al,0x24
    329a:	0f 94 c0             	sete   al
    329d:	84 c0                	test   al,al
    329f:	74 13                	je     32b4 <_Z9ascii_artNSt7__cxx1112basic_stringIcSt11char_traitsIcESaIcEEE+0x1fcb>
    32a1:	48 8d 35 d3 5f 00 00 	lea    rsi,[rip+0x5fd3]        # 927b <_ZStL19piecewise_construct+0x273>
    32a8:	48 8d 3d 91 7d 00 00 	lea    rdi,[rip+0x7d91]        # b040 <_ZSt4cout@@GLIBCXX_3.4>
    32af:	e8 bc de ff ff       	call   1170 <_ZStlsISt11char_traitsIcEERSt13basic_ostreamIcT_ES5_PKc@plt>
    32b4:	8b 45 ac             	mov    eax,DWORD PTR [rbp-0x54]
    32b7:	48 63 d0             	movsxd rdx,eax
    32ba:	48 8d 45 c0          	lea    rax,[rbp-0x40]
    32be:	48 89 d6             	mov    rsi,rdx
    32c1:	48 89 c7             	mov    rdi,rax
    32c4:	e8 27 df ff ff       	call   11f0 <_ZNSt7__cxx1112basic_stringIcSt11char_traitsIcESaIcEEixEm@plt>
    32c9:	0f b6 00             	movzx  eax,BYTE PTR [rax]
    32cc:	3c 25                	cmp    al,0x25
    32ce:	0f 94 c0             	sete   al
    32d1:	84 c0                	test   al,al
    32d3:	74 13                	je     32e8 <_Z9ascii_artNSt7__cxx1112basic_stringIcSt11char_traitsIcESaIcEEE+0x1fff>
    32d5:	48 8d 35 a6 5f 00 00 	lea    rsi,[rip+0x5fa6]        # 9282 <_ZStL19piecewise_construct+0x27a>
    32dc:	48 8d 3d 5d 7d 00 00 	lea    rdi,[rip+0x7d5d]        # b040 <_ZSt4cout@@GLIBCXX_3.4>
    32e3:	e8 88 de ff ff       	call   1170 <_ZStlsISt11char_traitsIcEERSt13basic_ostreamIcT_ES5_PKc@plt>
    32e8:	8b 45 ac             	mov    eax,DWORD PTR [rbp-0x54]
    32eb:	48 63 d0             	movsxd rdx,eax
    32ee:	48 8d 45 c0          	lea    rax,[rbp-0x40]
    32f2:	48 89 d6             	mov    rsi,rdx
    32f5:	48 89 c7             	mov    rdi,rax
    32f8:	e8 f3 de ff ff       	call   11f0 <_ZNSt7__cxx1112basic_stringIcSt11char_traitsIcESaIcEEixEm@plt>
    32fd:	0f b6 00             	movzx  eax,BYTE PTR [rax]
    3300:	3c 5e                	cmp    al,0x5e
    3302:	0f 94 c0             	sete   al
    3305:	84 c0                	test   al,al
    3307:	74 13                	je     331c <_Z9ascii_artNSt7__cxx1112basic_stringIcSt11char_traitsIcESaIcEEE+0x2033>
    3309:	48 8d 35 7b 5f 00 00 	lea    rsi,[rip+0x5f7b]        # 928b <_ZStL19piecewise_construct+0x283>
    3310:	48 8d 3d 29 7d 00 00 	lea    rdi,[rip+0x7d29]        # b040 <_ZSt4cout@@GLIBCXX_3.4>
    3317:	e8 54 de ff ff       	call   1170 <_ZStlsISt11char_traitsIcEERSt13basic_ostreamIcT_ES5_PKc@plt>
    331c:	8b 45 ac             	mov    eax,DWORD PTR [rbp-0x54]
    331f:	48 63 d0             	movsxd rdx,eax
    3322:	48 8d 45 c0          	lea    rax,[rbp-0x40]
    3326:	48 89 d6             	mov    rsi,rdx
    3329:	48 89 c7             	mov    rdi,rax
    332c:	e8 bf de ff ff       	call   11f0 <_ZNSt7__cxx1112basic_stringIcSt11char_traitsIcESaIcEEixEm@plt>
    3331:	0f b6 00             	movzx  eax,BYTE PTR [rax]
    3334:	3c 26                	cmp    al,0x26
    3336:	0f 94 c0             	sete   al
    3339:	84 c0                	test   al,al
    333b:	74 13                	je     3350 <_Z9ascii_artNSt7__cxx1112basic_stringIcSt11char_traitsIcESaIcEEE+0x2067>
    333d:	48 8d 35 4d 5f 00 00 	lea    rsi,[rip+0x5f4d]        # 9291 <_ZStL19piecewise_construct+0x289>
    3344:	48 8d 3d f5 7c 00 00 	lea    rdi,[rip+0x7cf5]        # b040 <_ZSt4cout@@GLIBCXX_3.4>
    334b:	e8 20 de ff ff       	call   1170 <_ZStlsISt11char_traitsIcEERSt13basic_ostreamIcT_ES5_PKc@plt>
    3350:	8b 45 ac             	mov    eax,DWORD PTR [rbp-0x54]
    3353:	48 63 d0             	movsxd rdx,eax
    3356:	48 8d 45 c0          	lea    rax,[rbp-0x40]
    335a:	48 89 d6             	mov    rsi,rdx
    335d:	48 89 c7             	mov    rdi,rax
    3360:	e8 8b de ff ff       	call   11f0 <_ZNSt7__cxx1112basic_stringIcSt11char_traitsIcESaIcEEixEm@plt>
    3365:	0f b6 00             	movzx  eax,BYTE PTR [rax]
    3368:	3c 2a                	cmp    al,0x2a
    336a:	0f 94 c0             	sete   al
    336d:	84 c0                	test   al,al
    336f:	74 13                	je     3384 <_Z9ascii_artNSt7__cxx1112basic_stringIcSt11char_traitsIcESaIcEEE+0x209b>
    3371:	48 8d 35 23 5f 00 00 	lea    rsi,[rip+0x5f23]        # 929b <_ZStL19piecewise_construct+0x293>
    3378:	48 8d 3d c1 7c 00 00 	lea    rdi,[rip+0x7cc1]        # b040 <_ZSt4cout@@GLIBCXX_3.4>
    337f:	e8 ec dd ff ff       	call   1170 <_ZStlsISt11char_traitsIcEERSt13basic_ostreamIcT_ES5_PKc@plt>
    3384:	8b 45 ac             	mov    eax,DWORD PTR [rbp-0x54]
    3387:	48 63 d0             	movsxd rdx,eax
    338a:	48 8d 45 c0          	lea    rax,[rbp-0x40]
    338e:	48 89 d6             	mov    rsi,rdx
    3391:	48 89 c7             	mov    rdi,rax
    3394:	e8 57 de ff ff       	call   11f0 <_ZNSt7__cxx1112basic_stringIcSt11char_traitsIcESaIcEEixEm@plt>
    3399:	0f b6 00             	movzx  eax,BYTE PTR [rax]
    339c:	3c 28                	cmp    al,0x28
    339e:	0f 94 c0             	sete   al
    33a1:	84 c0                	test   al,al
    33a3:	74 13                	je     33b8 <_Z9ascii_artNSt7__cxx1112basic_stringIcSt11char_traitsIcESaIcEEE+0x20cf>
    33a5:	48 8d 35 fa 5e 00 00 	lea    rsi,[rip+0x5efa]        # 92a6 <_ZStL19piecewise_construct+0x29e>
    33ac:	48 8d 3d 8d 7c 00 00 	lea    rdi,[rip+0x7c8d]        # b040 <_ZSt4cout@@GLIBCXX_3.4>
    33b3:	e8 b8 dd ff ff       	call   1170 <_ZStlsISt11char_traitsIcEERSt13basic_ostreamIcT_ES5_PKc@plt>
    33b8:	8b 45 ac             	mov    eax,DWORD PTR [rbp-0x54]
    33bb:	48 63 d0             	movsxd rdx,eax
    33be:	48 8d 45 c0          	lea    rax,[rbp-0x40]
    33c2:	48 89 d6             	mov    rsi,rdx
    33c5:	48 89 c7             	mov    rdi,rax
    33c8:	e8 23 de ff ff       	call   11f0 <_ZNSt7__cxx1112basic_stringIcSt11char_traitsIcESaIcEEixEm@plt>
    33cd:	0f b6 00             	movzx  eax,BYTE PTR [rax]
    33d0:	3c 29                	cmp    al,0x29
    33d2:	0f 94 c0             	sete   al
    33d5:	84 c0                	test   al,al
    33d7:	74 13                	je     33ec <_Z9ascii_artNSt7__cxx1112basic_stringIcSt11char_traitsIcESaIcEEE+0x2103>
    33d9:	48 8d 35 cc 5e 00 00 	lea    rsi,[rip+0x5ecc]        # 92ac <_ZStL19piecewise_construct+0x2a4>
    33e0:	48 8d 3d 59 7c 00 00 	lea    rdi,[rip+0x7c59]        # b040 <_ZSt4cout@@GLIBCXX_3.4>
    33e7:	e8 84 dd ff ff       	call   1170 <_ZStlsISt11char_traitsIcEERSt13basic_ostreamIcT_ES5_PKc@plt>
    33ec:	8b 45 ac             	mov    eax,DWORD PTR [rbp-0x54]
    33ef:	48 63 d0             	movsxd rdx,eax
    33f2:	48 8d 45 c0          	lea    rax,[rbp-0x40]
    33f6:	48 89 d6             	mov    rsi,rdx
    33f9:	48 89 c7             	mov    rdi,rax
    33fc:	e8 ef dd ff ff       	call   11f0 <_ZNSt7__cxx1112basic_stringIcSt11char_traitsIcESaIcEEixEm@plt>
    3401:	0f b6 00             	movzx  eax,BYTE PTR [rax]
    3404:	3c 2d                	cmp    al,0x2d
    3406:	0f 94 c0             	sete   al
    3409:	84 c0                	test   al,al
    340b:	74 13                	je     3420 <_Z9ascii_artNSt7__cxx1112basic_stringIcSt11char_traitsIcESaIcEEE+0x2137>
    340d:	48 8d 35 17 5d 00 00 	lea    rsi,[rip+0x5d17]        # 912b <_ZStL19piecewise_construct+0x123>
    3414:	48 8d 3d 25 7c 00 00 	lea    rdi,[rip+0x7c25]        # b040 <_ZSt4cout@@GLIBCXX_3.4>
    341b:	e8 50 dd ff ff       	call   1170 <_ZStlsISt11char_traitsIcEERSt13basic_ostreamIcT_ES5_PKc@plt>
    3420:	8b 45 ac             	mov    eax,DWORD PTR [rbp-0x54]
    3423:	48 63 d0             	movsxd rdx,eax
    3426:	48 8d 45 c0          	lea    rax,[rbp-0x40]
    342a:	48 89 d6             	mov    rsi,rdx
    342d:	48 89 c7             	mov    rdi,rax
    3430:	e8 bb dd ff ff       	call   11f0 <_ZNSt7__cxx1112basic_stringIcSt11char_traitsIcESaIcEEixEm@plt>
    3435:	0f b6 00             	movzx  eax,BYTE PTR [rax]
    3438:	3c 5f                	cmp    al,0x5f
    343a:	0f 94 c0             	sete   al
    343d:	84 c0                	test   al,al
    343f:	74 13                	je     3454 <_Z9ascii_artNSt7__cxx1112basic_stringIcSt11char_traitsIcESaIcEEE+0x216b>
    3441:	48 8d 35 e3 5c 00 00 	lea    rsi,[rip+0x5ce3]        # 912b <_ZStL19piecewise_construct+0x123>
    3448:	48 8d 3d f1 7b 00 00 	lea    rdi,[rip+0x7bf1]        # b040 <_ZSt4cout@@GLIBCXX_3.4>
    344f:	e8 1c dd ff ff       	call   1170 <_ZStlsISt11char_traitsIcEERSt13basic_ostreamIcT_ES5_PKc@plt>
    3454:	8b 45 ac             	mov    eax,DWORD PTR [rbp-0x54]
    3457:	48 63 d0             	movsxd rdx,eax
    345a:	48 8d 45 c0          	lea    rax,[rbp-0x40]
    345e:	48 89 d6             	mov    rsi,rdx
    3461:	48 89 c7             	mov    rdi,rax
    3464:	e8 87 dd ff ff       	call   11f0 <_ZNSt7__cxx1112basic_stringIcSt11char_traitsIcESaIcEEixEm@plt>
    3469:	0f b6 00             	movzx  eax,BYTE PTR [rax]
    346c:	3c 3d                	cmp    al,0x3d
    346e:	0f 94 c0             	sete   al
    3471:	84 c0                	test   al,al
    3473:	74 13                	je     3488 <_Z9ascii_artNSt7__cxx1112basic_stringIcSt11char_traitsIcESaIcEEE+0x219f>
    3475:	48 8d 35 36 5e 00 00 	lea    rsi,[rip+0x5e36]        # 92b2 <_ZStL19piecewise_construct+0x2aa>
    347c:	48 8d 3d bd 7b 00 00 	lea    rdi,[rip+0x7bbd]        # b040 <_ZSt4cout@@GLIBCXX_3.4>
    3483:	e8 e8 dc ff ff       	call   1170 <_ZStlsISt11char_traitsIcEERSt13basic_ostreamIcT_ES5_PKc@plt>
    3488:	8b 45 ac             	mov    eax,DWORD PTR [rbp-0x54]
    348b:	48 63 d0             	movsxd rdx,eax
    348e:	48 8d 45 c0          	lea    rax,[rbp-0x40]
    3492:	48 89 d6             	mov    rsi,rdx
    3495:	48 89 c7             	mov    rdi,rax
    3498:	e8 53 dd ff ff       	call   11f0 <_ZNSt7__cxx1112basic_stringIcSt11char_traitsIcESaIcEEixEm@plt>
    349d:	0f b6 00             	movzx  eax,BYTE PTR [rax]
    34a0:	3c 2b                	cmp    al,0x2b
    34a2:	0f 94 c0             	sete   al
    34a5:	84 c0                	test   al,al
    34a7:	74 13                	je     34bc <_Z9ascii_artNSt7__cxx1112basic_stringIcSt11char_traitsIcESaIcEEE+0x21d3>
    34a9:	48 8d 35 0c 5e 00 00 	lea    rsi,[rip+0x5e0c]        # 92bc <_ZStL19piecewise_construct+0x2b4>
    34b0:	48 8d 3d 89 7b 00 00 	lea    rdi,[rip+0x7b89]        # b040 <_ZSt4cout@@GLIBCXX_3.4>
    34b7:	e8 b4 dc ff ff       	call   1170 <_ZStlsISt11char_traitsIcEERSt13basic_ostreamIcT_ES5_PKc@plt>
    34bc:	8b 45 ac             	mov    eax,DWORD PTR [rbp-0x54]
    34bf:	48 63 d0             	movsxd rdx,eax
    34c2:	48 8d 45 c0          	lea    rax,[rbp-0x40]
    34c6:	48 89 d6             	mov    rsi,rdx
    34c9:	48 89 c7             	mov    rdi,rax
    34cc:	e8 1f dd ff ff       	call   11f0 <_ZNSt7__cxx1112basic_stringIcSt11char_traitsIcESaIcEEixEm@plt>
    34d1:	0f b6 00             	movzx  eax,BYTE PTR [rax]
    34d4:	3c 5b                	cmp    al,0x5b
    34d6:	0f 94 c0             	sete   al
    34d9:	84 c0                	test   al,al
    34db:	74 13                	je     34f0 <_Z9ascii_artNSt7__cxx1112basic_stringIcSt11char_traitsIcESaIcEEE+0x2207>
    34dd:	48 8d 35 e1 5d 00 00 	lea    rsi,[rip+0x5de1]        # 92c5 <_ZStL19piecewise_construct+0x2bd>
    34e4:	48 8d 3d 55 7b 00 00 	lea    rdi,[rip+0x7b55]        # b040 <_ZSt4cout@@GLIBCXX_3.4>
    34eb:	e8 80 dc ff ff       	call   1170 <_ZStlsISt11char_traitsIcEERSt13basic_ostreamIcT_ES5_PKc@plt>
    34f0:	8b 45 ac             	mov    eax,DWORD PTR [rbp-0x54]
    34f3:	48 63 d0             	movsxd rdx,eax
    34f6:	48 8d 45 c0          	lea    rax,[rbp-0x40]
    34fa:	48 89 d6             	mov    rsi,rdx
    34fd:	48 89 c7             	mov    rdi,rax
    3500:	e8 eb dc ff ff       	call   11f0 <_ZNSt7__cxx1112basic_stringIcSt11char_traitsIcESaIcEEixEm@plt>
    3505:	0f b6 00             	movzx  eax,BYTE PTR [rax]
    3508:	3c 7b                	cmp    al,0x7b
    350a:	0f 94 c0             	sete   al
    350d:	84 c0                	test   al,al
    350f:	74 13                	je     3524 <_Z9ascii_artNSt7__cxx1112basic_stringIcSt11char_traitsIcESaIcEEE+0x223b>
    3511:	48 8d 35 b4 5d 00 00 	lea    rsi,[rip+0x5db4]        # 92cc <_ZStL19piecewise_construct+0x2c4>
    3518:	48 8d 3d 21 7b 00 00 	lea    rdi,[rip+0x7b21]        # b040 <_ZSt4cout@@GLIBCXX_3.4>
    351f:	e8 4c dc ff ff       	call   1170 <_ZStlsISt11char_traitsIcEERSt13basic_ostreamIcT_ES5_PKc@plt>
    3524:	8b 45 ac             	mov    eax,DWORD PTR [rbp-0x54]
    3527:	48 63 d0             	movsxd rdx,eax
    352a:	48 8d 45 c0          	lea    rax,[rbp-0x40]
    352e:	48 89 d6             	mov    rsi,rdx
    3531:	48 89 c7             	mov    rdi,rax
    3534:	e8 b7 dc ff ff       	call   11f0 <_ZNSt7__cxx1112basic_stringIcSt11char_traitsIcESaIcEEixEm@plt>
    3539:	0f b6 00             	movzx  eax,BYTE PTR [rax]
    353c:	3c 5d                	cmp    al,0x5d
    353e:	0f 94 c0             	sete   al
    3541:	84 c0                	test   al,al
    3543:	74 13                	je     3558 <_Z9ascii_artNSt7__cxx1112basic_stringIcSt11char_traitsIcESaIcEEE+0x226f>
    3545:	48 8d 35 87 5d 00 00 	lea    rsi,[rip+0x5d87]        # 92d3 <_ZStL19piecewise_construct+0x2cb>
    354c:	48 8d 3d ed 7a 00 00 	lea    rdi,[rip+0x7aed]        # b040 <_ZSt4cout@@GLIBCXX_3.4>
    3553:	e8 18 dc ff ff       	call   1170 <_ZStlsISt11char_traitsIcEERSt13basic_ostreamIcT_ES5_PKc@plt>
    3558:	8b 45 ac             	mov    eax,DWORD PTR [rbp-0x54]
    355b:	48 63 d0             	movsxd rdx,eax
    355e:	48 8d 45 c0          	lea    rax,[rbp-0x40]
    3562:	48 89 d6             	mov    rsi,rdx
    3565:	48 89 c7             	mov    rdi,rax
    3568:	e8 83 dc ff ff       	call   11f0 <_ZNSt7__cxx1112basic_stringIcSt11char_traitsIcESaIcEEixEm@plt>
    356d:	0f b6 00             	movzx  eax,BYTE PTR [rax]
    3570:	3c 7d                	cmp    al,0x7d
    3572:	0f 94 c0             	sete   al
    3575:	84 c0                	test   al,al
    3577:	74 13                	je     358c <_Z9ascii_artNSt7__cxx1112basic_stringIcSt11char_traitsIcESaIcEEE+0x22a3>
    3579:	48 8d 35 5a 5d 00 00 	lea    rsi,[rip+0x5d5a]        # 92da <_ZStL19piecewise_construct+0x2d2>
    3580:	48 8d 3d b9 7a 00 00 	lea    rdi,[rip+0x7ab9]        # b040 <_ZSt4cout@@GLIBCXX_3.4>
    3587:	e8 e4 db ff ff       	call   1170 <_ZStlsISt11char_traitsIcEERSt13basic_ostreamIcT_ES5_PKc@plt>
    358c:	8b 45 ac             	mov    eax,DWORD PTR [rbp-0x54]
    358f:	48 63 d0             	movsxd rdx,eax
    3592:	48 8d 45 c0          	lea    rax,[rbp-0x40]
    3596:	48 89 d6             	mov    rsi,rdx
    3599:	48 89 c7             	mov    rdi,rax
    359c:	e8 4f dc ff ff       	call   11f0 <_ZNSt7__cxx1112basic_stringIcSt11char_traitsIcESaIcEEixEm@plt>
    35a1:	0f b6 00             	movzx  eax,BYTE PTR [rax]
    35a4:	3c 7c                	cmp    al,0x7c
    35a6:	0f 94 c0             	sete   al
    35a9:	84 c0                	test   al,al
    35ab:	74 13                	je     35c0 <_Z9ascii_artNSt7__cxx1112basic_stringIcSt11char_traitsIcESaIcEEE+0x22d7>
    35ad:	48 8d 35 ab 5c 00 00 	lea    rsi,[rip+0x5cab]        # 925f <_ZStL19piecewise_construct+0x257>
    35b4:	48 8d 3d 85 7a 00 00 	lea    rdi,[rip+0x7a85]        # b040 <_ZSt4cout@@GLIBCXX_3.4>
    35bb:	e8 b0 db ff ff       	call   1170 <_ZStlsISt11char_traitsIcEERSt13basic_ostreamIcT_ES5_PKc@plt>
    35c0:	8b 45 ac             	mov    eax,DWORD PTR [rbp-0x54]
    35c3:	48 63 d0             	movsxd rdx,eax
    35c6:	48 8d 45 c0          	lea    rax,[rbp-0x40]
    35ca:	48 89 d6             	mov    rsi,rdx
    35cd:	48 89 c7             	mov    rdi,rax
    35d0:	e8 1b dc ff ff       	call   11f0 <_ZNSt7__cxx1112basic_stringIcSt11char_traitsIcESaIcEEixEm@plt>
    35d5:	0f b6 00             	movzx  eax,BYTE PTR [rax]
    35d8:	3c 5c                	cmp    al,0x5c
    35da:	0f 94 c0             	sete   al
    35dd:	84 c0                	test   al,al
    35df:	74 13                	je     35f4 <_Z9ascii_artNSt7__cxx1112basic_stringIcSt11char_traitsIcESaIcEEE+0x230b>
    35e1:	48 8d 35 f9 5c 00 00 	lea    rsi,[rip+0x5cf9]        # 92e1 <_ZStL19piecewise_construct+0x2d9>
    35e8:	48 8d 3d 51 7a 00 00 	lea    rdi,[rip+0x7a51]        # b040 <_ZSt4cout@@GLIBCXX_3.4>
    35ef:	e8 7c db ff ff       	call   1170 <_ZStlsISt11char_traitsIcEERSt13basic_ostreamIcT_ES5_PKc@plt>
    35f4:	8b 45 ac             	mov    eax,DWORD PTR [rbp-0x54]
    35f7:	48 63 d0             	movsxd rdx,eax
    35fa:	48 8d 45 c0          	lea    rax,[rbp-0x40]
    35fe:	48 89 d6             	mov    rsi,rdx
    3601:	48 89 c7             	mov    rdi,rax
    3604:	e8 e7 db ff ff       	call   11f0 <_ZNSt7__cxx1112basic_stringIcSt11char_traitsIcESaIcEEixEm@plt>
    3609:	0f b6 00             	movzx  eax,BYTE PTR [rax]
    360c:	3c 3b                	cmp    al,0x3b
    360e:	0f 94 c0             	sete   al
    3611:	84 c0                	test   al,al
    3613:	74 13                	je     3628 <_Z9ascii_artNSt7__cxx1112basic_stringIcSt11char_traitsIcESaIcEEE+0x233f>
    3615:	48 8d 35 ce 5c 00 00 	lea    rsi,[rip+0x5cce]        # 92ea <_ZStL19piecewise_construct+0x2e2>
    361c:	48 8d 3d 1d 7a 00 00 	lea    rdi,[rip+0x7a1d]        # b040 <_ZSt4cout@@GLIBCXX_3.4>
    3623:	e8 48 db ff ff       	call   1170 <_ZStlsISt11char_traitsIcEERSt13basic_ostreamIcT_ES5_PKc@plt>
    3628:	8b 45 ac             	mov    eax,DWORD PTR [rbp-0x54]
    362b:	48 63 d0             	movsxd rdx,eax
    362e:	48 8d 45 c0          	lea    rax,[rbp-0x40]
    3632:	48 89 d6             	mov    rsi,rdx
    3635:	48 89 c7             	mov    rdi,rax
    3638:	e8 b3 db ff ff       	call   11f0 <_ZNSt7__cxx1112basic_stringIcSt11char_traitsIcESaIcEEixEm@plt>
    363d:	0f b6 00             	movzx  eax,BYTE PTR [rax]
    3640:	3c 3a                	cmp    al,0x3a
    3642:	0f 94 c0             	sete   al
    3645:	84 c0                	test   al,al
    3647:	74 13                	je     365c <_Z9ascii_artNSt7__cxx1112basic_stringIcSt11char_traitsIcESaIcEEE+0x2373>
    3649:	48 8d 35 96 5a 00 00 	lea    rsi,[rip+0x5a96]        # 90e6 <_ZStL19piecewise_construct+0xde>
    3650:	48 8d 3d e9 79 00 00 	lea    rdi,[rip+0x79e9]        # b040 <_ZSt4cout@@GLIBCXX_3.4>
    3657:	e8 14 db ff ff       	call   1170 <_ZStlsISt11char_traitsIcEERSt13basic_ostreamIcT_ES5_PKc@plt>
    365c:	8b 45 ac             	mov    eax,DWORD PTR [rbp-0x54]
    365f:	48 63 d0             	movsxd rdx,eax
    3662:	48 8d 45 c0          	lea    rax,[rbp-0x40]
    3666:	48 89 d6             	mov    rsi,rdx
    3669:	48 89 c7             	mov    rdi,rax
    366c:	e8 7f db ff ff       	call   11f0 <_ZNSt7__cxx1112basic_stringIcSt11char_traitsIcESaIcEEixEm@plt>
    3671:	0f b6 00             	movzx  eax,BYTE PTR [rax]
    3674:	3c 27                	cmp    al,0x27
    3676:	0f 94 c0             	sete   al
    3679:	84 c0                	test   al,al
    367b:	74 13                	je     3690 <_Z9ascii_artNSt7__cxx1112basic_stringIcSt11char_traitsIcESaIcEEE+0x23a7>
    367d:	48 8d 35 ab 5b 00 00 	lea    rsi,[rip+0x5bab]        # 922f <_ZStL19piecewise_construct+0x227>
    3684:	48 8d 3d b5 79 00 00 	lea    rdi,[rip+0x79b5]        # b040 <_ZSt4cout@@GLIBCXX_3.4>
    368b:	e8 e0 da ff ff       	call   1170 <_ZStlsISt11char_traitsIcEERSt13basic_ostreamIcT_ES5_PKc@plt>
    3690:	8b 45 ac             	mov    eax,DWORD PTR [rbp-0x54]
    3693:	48 63 d0             	movsxd rdx,eax
    3696:	48 8d 45 c0          	lea    rax,[rbp-0x40]
    369a:	48 89 d6             	mov    rsi,rdx
    369d:	48 89 c7             	mov    rdi,rax
    36a0:	e8 4b db ff ff       	call   11f0 <_ZNSt7__cxx1112basic_stringIcSt11char_traitsIcESaIcEEixEm@plt>
    36a5:	0f b6 00             	movzx  eax,BYTE PTR [rax]
    36a8:	3c 22                	cmp    al,0x22
    36aa:	0f 94 c0             	sete   al
    36ad:	84 c0                	test   al,al
    36af:	74 13                	je     36c4 <_Z9ascii_artNSt7__cxx1112basic_stringIcSt11char_traitsIcESaIcEEE+0x23db>
    36b1:	48 8d 35 37 5c 00 00 	lea    rsi,[rip+0x5c37]        # 92ef <_ZStL19piecewise_construct+0x2e7>
    36b8:	48 8d 3d 81 79 00 00 	lea    rdi,[rip+0x7981]        # b040 <_ZSt4cout@@GLIBCXX_3.4>
    36bf:	e8 ac da ff ff       	call   1170 <_ZStlsISt11char_traitsIcEERSt13basic_ostreamIcT_ES5_PKc@plt>
    36c4:	8b 45 ac             	mov    eax,DWORD PTR [rbp-0x54]
    36c7:	48 63 d0             	movsxd rdx,eax
    36ca:	48 8d 45 c0          	lea    rax,[rbp-0x40]
    36ce:	48 89 d6             	mov    rsi,rdx
    36d1:	48 89 c7             	mov    rdi,rax
    36d4:	e8 17 db ff ff       	call   11f0 <_ZNSt7__cxx1112basic_stringIcSt11char_traitsIcESaIcEEixEm@plt>
    36d9:	0f b6 00             	movzx  eax,BYTE PTR [rax]
    36dc:	3c 3c                	cmp    al,0x3c
    36de:	0f 94 c0             	sete   al
    36e1:	84 c0                	test   al,al
    36e3:	74 13                	je     36f8 <_Z9ascii_artNSt7__cxx1112basic_stringIcSt11char_traitsIcESaIcEEE+0x240f>
    36e5:	48 8d 35 e0 5b 00 00 	lea    rsi,[rip+0x5be0]        # 92cc <_ZStL19piecewise_construct+0x2c4>
    36ec:	48 8d 3d 4d 79 00 00 	lea    rdi,[rip+0x794d]        # b040 <_ZSt4cout@@GLIBCXX_3.4>
    36f3:	e8 78 da ff ff       	call   1170 <_ZStlsISt11char_traitsIcEERSt13basic_ostreamIcT_ES5_PKc@plt>
    36f8:	8b 45 ac             	mov    eax,DWORD PTR [rbp-0x54]
    36fb:	48 63 d0             	movsxd rdx,eax
    36fe:	48 8d 45 c0          	lea    rax,[rbp-0x40]
    3702:	48 89 d6             	mov    rsi,rdx
    3705:	48 89 c7             	mov    rdi,rax
    3708:	e8 e3 da ff ff       	call   11f0 <_ZNSt7__cxx1112basic_stringIcSt11char_traitsIcESaIcEEixEm@plt>
    370d:	0f b6 00             	movzx  eax,BYTE PTR [rax]
    3710:	3c 2c                	cmp    al,0x2c
    3712:	0f 94 c0             	sete   al
    3715:	84 c0                	test   al,al
    3717:	74 13                	je     372c <_Z9ascii_artNSt7__cxx1112basic_stringIcSt11char_traitsIcESaIcEEE+0x2443>
    3719:	48 8d 35 e2 59 00 00 	lea    rsi,[rip+0x59e2]        # 9102 <_ZStL19piecewise_construct+0xfa>
    3720:	48 8d 3d 19 79 00 00 	lea    rdi,[rip+0x7919]        # b040 <_ZSt4cout@@GLIBCXX_3.4>
    3727:	e8 44 da ff ff       	call   1170 <_ZStlsISt11char_traitsIcEERSt13basic_ostreamIcT_ES5_PKc@plt>
    372c:	8b 45 ac             	mov    eax,DWORD PTR [rbp-0x54]
    372f:	48 63 d0             	movsxd rdx,eax
    3732:	48 8d 45 c0          	lea    rax,[rbp-0x40]
    3736:	48 89 d6             	mov    rsi,rdx
    3739:	48 89 c7             	mov    rdi,rax
    373c:	e8 af da ff ff       	call   11f0 <_ZNSt7__cxx1112basic_stringIcSt11char_traitsIcESaIcEEixEm@plt>
    3741:	0f b6 00             	movzx  eax,BYTE PTR [rax]
    3744:	3c 3e                	cmp    al,0x3e
    3746:	0f 94 c0             	sete   al
    3749:	84 c0                	test   al,al
    374b:	74 13                	je     3760 <_Z9ascii_artNSt7__cxx1112basic_stringIcSt11char_traitsIcESaIcEEE+0x2477>
    374d:	48 8d 35 86 5b 00 00 	lea    rsi,[rip+0x5b86]        # 92da <_ZStL19piecewise_construct+0x2d2>
    3754:	48 8d 3d e5 78 00 00 	lea    rdi,[rip+0x78e5]        # b040 <_ZSt4cout@@GLIBCXX_3.4>
    375b:	e8 10 da ff ff       	call   1170 <_ZStlsISt11char_traitsIcEERSt13basic_ostreamIcT_ES5_PKc@plt>
    3760:	8b 45 ac             	mov    eax,DWORD PTR [rbp-0x54]
    3763:	48 63 d0             	movsxd rdx,eax
    3766:	48 8d 45 c0          	lea    rax,[rbp-0x40]
    376a:	48 89 d6             	mov    rsi,rdx
    376d:	48 89 c7             	mov    rdi,rax
    3770:	e8 7b da ff ff       	call   11f0 <_ZNSt7__cxx1112basic_stringIcSt11char_traitsIcESaIcEEixEm@plt>
    3775:	0f b6 00             	movzx  eax,BYTE PTR [rax]
    3778:	3c 2f                	cmp    al,0x2f
    377a:	0f 94 c0             	sete   al
    377d:	84 c0                	test   al,al
    377f:	74 13                	je     3794 <_Z9ascii_artNSt7__cxx1112basic_stringIcSt11char_traitsIcESaIcEEE+0x24ab>
    3781:	48 8d 35 6e 5b 00 00 	lea    rsi,[rip+0x5b6e]        # 92f6 <_ZStL19piecewise_construct+0x2ee>
    3788:	48 8d 3d b1 78 00 00 	lea    rdi,[rip+0x78b1]        # b040 <_ZSt4cout@@GLIBCXX_3.4>
    378f:	e8 dc d9 ff ff       	call   1170 <_ZStlsISt11char_traitsIcEERSt13basic_ostreamIcT_ES5_PKc@plt>
    3794:	8b 45 ac             	mov    eax,DWORD PTR [rbp-0x54]
    3797:	48 63 d0             	movsxd rdx,eax
    379a:	48 8d 45 c0          	lea    rax,[rbp-0x40]
    379e:	48 89 d6             	mov    rsi,rdx
    37a1:	48 89 c7             	mov    rdi,rax
    37a4:	e8 47 da ff ff       	call   11f0 <_ZNSt7__cxx1112basic_stringIcSt11char_traitsIcESaIcEEixEm@plt>
    37a9:	0f b6 00             	movzx  eax,BYTE PTR [rax]
    37ac:	3c 3f                	cmp    al,0x3f
    37ae:	0f 94 c0             	sete   al
    37b1:	84 c0                	test   al,al
    37b3:	74 13                	je     37c8 <_Z9ascii_artNSt7__cxx1112basic_stringIcSt11char_traitsIcESaIcEEE+0x24df>
    37b5:	48 8d 35 43 5b 00 00 	lea    rsi,[rip+0x5b43]        # 92ff <_ZStL19piecewise_construct+0x2f7>
    37bc:	48 8d 3d 7d 78 00 00 	lea    rdi,[rip+0x787d]        # b040 <_ZSt4cout@@GLIBCXX_3.4>
    37c3:	e8 a8 d9 ff ff       	call   1170 <_ZStlsISt11char_traitsIcEERSt13basic_ostreamIcT_ES5_PKc@plt>
    37c8:	83 45 ac 01          	add    DWORD PTR [rbp-0x54],0x1
    37cc:	e9 dd ed ff ff       	jmp    25ae <_Z9ascii_artNSt7__cxx1112basic_stringIcSt11char_traitsIcESaIcEEE+0x12c5>
    37d1:	48 8b 05 f8 77 00 00 	mov    rax,QWORD PTR [rip+0x77f8]        # afd0 <_ZSt4endlIcSt11char_traitsIcEERSt13basic_ostreamIT_T0_ES6_@GLIBCXX_3.4>
    37d8:	48 89 c6             	mov    rsi,rax
    37db:	48 8d 3d 5e 78 00 00 	lea    rdi,[rip+0x785e]        # b040 <_ZSt4cout@@GLIBCXX_3.4>
    37e2:	e8 99 d9 ff ff       	call   1180 <_ZNSolsEPFRSoS_E@plt>
    37e7:	c7 45 b0 00 00 00 00 	mov    DWORD PTR [rbp-0x50],0x0
    37ee:	8b 45 b0             	mov    eax,DWORD PTR [rbp-0x50]
    37f1:	48 63 d8             	movsxd rbx,eax
    37f4:	48 8d 45 c0          	lea    rax,[rbp-0x40]
    37f8:	48 89 c7             	mov    rdi,rax
    37fb:	e8 50 d9 ff ff       	call   1150 <_ZNKSt7__cxx1112basic_stringIcSt11char_traitsIcESaIcEE4sizeEv@plt>
    3800:	48 39 c3             	cmp    rbx,rax
    3803:	0f 92 c0             	setb   al
    3806:	84 c0                	test   al,al
    3808:	0f 84 03 12 00 00    	je     4a11 <_Z9ascii_artNSt7__cxx1112basic_stringIcSt11char_traitsIcESaIcEEE+0x3728>
    380e:	8b 45 b0             	mov    eax,DWORD PTR [rbp-0x50]
    3811:	48 63 d0             	movsxd rdx,eax
    3814:	48 8d 45 c0          	lea    rax,[rbp-0x40]
    3818:	48 89 d6             	mov    rsi,rdx
    381b:	48 89 c7             	mov    rdi,rax
    381e:	e8 cd d9 ff ff       	call   11f0 <_ZNSt7__cxx1112basic_stringIcSt11char_traitsIcESaIcEEixEm@plt>
    3823:	0f b6 00             	movzx  eax,BYTE PTR [rax]
    3826:	3c 41                	cmp    al,0x41
    3828:	74 1c                	je     3846 <_Z9ascii_artNSt7__cxx1112basic_stringIcSt11char_traitsIcESaIcEEE+0x255d>
    382a:	8b 45 b0             	mov    eax,DWORD PTR [rbp-0x50]
    382d:	48 63 d0             	movsxd rdx,eax
    3830:	48 8d 45 c0          	lea    rax,[rbp-0x40]
    3834:	48 89 d6             	mov    rsi,rdx
    3837:	48 89 c7             	mov    rdi,rax
    383a:	e8 b1 d9 ff ff       	call   11f0 <_ZNSt7__cxx1112basic_stringIcSt11char_traitsIcESaIcEEixEm@plt>
    383f:	0f b6 00             	movzx  eax,BYTE PTR [rax]
    3842:	3c 61                	cmp    al,0x61
    3844:	75 07                	jne    384d <_Z9ascii_artNSt7__cxx1112basic_stringIcSt11char_traitsIcESaIcEEE+0x2564>
    3846:	b8 01 00 00 00       	mov    eax,0x1
    384b:	eb 05                	jmp    3852 <_Z9ascii_artNSt7__cxx1112basic_stringIcSt11char_traitsIcESaIcEEE+0x2569>
    384d:	b8 00 00 00 00       	mov    eax,0x0
    3852:	84 c0                	test   al,al
    3854:	74 13                	je     3869 <_Z9ascii_artNSt7__cxx1112basic_stringIcSt11char_traitsIcESaIcEEE+0x2580>
    3856:	48 8d 35 aa 5a 00 00 	lea    rsi,[rip+0x5aaa]        # 9307 <_ZStL19piecewise_construct+0x2ff>
    385d:	48 8d 3d dc 77 00 00 	lea    rdi,[rip+0x77dc]        # b040 <_ZSt4cout@@GLIBCXX_3.4>
    3864:	e8 07 d9 ff ff       	call   1170 <_ZStlsISt11char_traitsIcEERSt13basic_ostreamIcT_ES5_PKc@plt>
    3869:	8b 45 b0             	mov    eax,DWORD PTR [rbp-0x50]
    386c:	48 63 d0             	movsxd rdx,eax
    386f:	48 8d 45 c0          	lea    rax,[rbp-0x40]
    3873:	48 89 d6             	mov    rsi,rdx
    3876:	48 89 c7             	mov    rdi,rax
    3879:	e8 72 d9 ff ff       	call   11f0 <_ZNSt7__cxx1112basic_stringIcSt11char_traitsIcESaIcEEixEm@plt>
    387e:	0f b6 00             	movzx  eax,BYTE PTR [rax]
    3881:	3c 42                	cmp    al,0x42
    3883:	74 1c                	je     38a1 <_Z9ascii_artNSt7__cxx1112basic_stringIcSt11char_traitsIcESaIcEEE+0x25b8>
    3885:	8b 45 b0             	mov    eax,DWORD PTR [rbp-0x50]
    3888:	48 63 d0             	movsxd rdx,eax
    388b:	48 8d 45 c0          	lea    rax,[rbp-0x40]
    388f:	48 89 d6             	mov    rsi,rdx
    3892:	48 89 c7             	mov    rdi,rax
    3895:	e8 56 d9 ff ff       	call   11f0 <_ZNSt7__cxx1112basic_stringIcSt11char_traitsIcESaIcEEixEm@plt>
    389a:	0f b6 00             	movzx  eax,BYTE PTR [rax]
    389d:	3c 62                	cmp    al,0x62
    389f:	75 07                	jne    38a8 <_Z9ascii_artNSt7__cxx1112basic_stringIcSt11char_traitsIcESaIcEEE+0x25bf>
    38a1:	b8 01 00 00 00       	mov    eax,0x1
    38a6:	eb 05                	jmp    38ad <_Z9ascii_artNSt7__cxx1112basic_stringIcSt11char_traitsIcESaIcEEE+0x25c4>
    38a8:	b8 00 00 00 00       	mov    eax,0x0
    38ad:	84 c0                	test   al,al
    38af:	74 13                	je     38c4 <_Z9ascii_artNSt7__cxx1112basic_stringIcSt11char_traitsIcESaIcEEE+0x25db>
    38b1:	48 8d 35 58 5a 00 00 	lea    rsi,[rip+0x5a58]        # 9310 <_ZStL19piecewise_construct+0x308>
    38b8:	48 8d 3d 81 77 00 00 	lea    rdi,[rip+0x7781]        # b040 <_ZSt4cout@@GLIBCXX_3.4>
    38bf:	e8 ac d8 ff ff       	call   1170 <_ZStlsISt11char_traitsIcEERSt13basic_ostreamIcT_ES5_PKc@plt>
    38c4:	8b 45 b0             	mov    eax,DWORD PTR [rbp-0x50]
    38c7:	48 63 d0             	movsxd rdx,eax
    38ca:	48 8d 45 c0          	lea    rax,[rbp-0x40]
    38ce:	48 89 d6             	mov    rsi,rdx
    38d1:	48 89 c7             	mov    rdi,rax
    38d4:	e8 17 d9 ff ff       	call   11f0 <_ZNSt7__cxx1112basic_stringIcSt11char_traitsIcESaIcEEixEm@plt>
    38d9:	0f b6 00             	movzx  eax,BYTE PTR [rax]
    38dc:	3c 43                	cmp    al,0x43
    38de:	74 1c                	je     38fc <_Z9ascii_artNSt7__cxx1112basic_stringIcSt11char_traitsIcESaIcEEE+0x2613>
    38e0:	8b 45 b0             	mov    eax,DWORD PTR [rbp-0x50]
    38e3:	48 63 d0             	movsxd rdx,eax
    38e6:	48 8d 45 c0          	lea    rax,[rbp-0x40]
    38ea:	48 89 d6             	mov    rsi,rdx
    38ed:	48 89 c7             	mov    rdi,rax
    38f0:	e8 fb d8 ff ff       	call   11f0 <_ZNSt7__cxx1112basic_stringIcSt11char_traitsIcESaIcEEixEm@plt>
    38f5:	0f b6 00             	movzx  eax,BYTE PTR [rax]
    38f8:	3c 63                	cmp    al,0x63
    38fa:	75 07                	jne    3903 <_Z9ascii_artNSt7__cxx1112basic_stringIcSt11char_traitsIcESaIcEEE+0x261a>
    38fc:	b8 01 00 00 00       	mov    eax,0x1
    3901:	eb 05                	jmp    3908 <_Z9ascii_artNSt7__cxx1112basic_stringIcSt11char_traitsIcESaIcEEE+0x261f>
    3903:	b8 00 00 00 00       	mov    eax,0x0
    3908:	84 c0                	test   al,al
    390a:	74 13                	je     391f <_Z9ascii_artNSt7__cxx1112basic_stringIcSt11char_traitsIcESaIcEEE+0x2636>
    390c:	48 8d 35 06 5a 00 00 	lea    rsi,[rip+0x5a06]        # 9319 <_ZStL19piecewise_construct+0x311>
    3913:	48 8d 3d 26 77 00 00 	lea    rdi,[rip+0x7726]        # b040 <_ZSt4cout@@GLIBCXX_3.4>
    391a:	e8 51 d8 ff ff       	call   1170 <_ZStlsISt11char_traitsIcEERSt13basic_ostreamIcT_ES5_PKc@plt>
    391f:	8b 45 b0             	mov    eax,DWORD PTR [rbp-0x50]
    3922:	48 63 d0             	movsxd rdx,eax
    3925:	48 8d 45 c0          	lea    rax,[rbp-0x40]
    3929:	48 89 d6             	mov    rsi,rdx
    392c:	48 89 c7             	mov    rdi,rax
    392f:	e8 bc d8 ff ff       	call   11f0 <_ZNSt7__cxx1112basic_stringIcSt11char_traitsIcESaIcEEixEm@plt>
    3934:	0f b6 00             	movzx  eax,BYTE PTR [rax]
    3937:	3c 44                	cmp    al,0x44
    3939:	74 1c                	je     3957 <_Z9ascii_artNSt7__cxx1112basic_stringIcSt11char_traitsIcESaIcEEE+0x266e>
    393b:	8b 45 b0             	mov    eax,DWORD PTR [rbp-0x50]
    393e:	48 63 d0             	movsxd rdx,eax
    3941:	48 8d 45 c0          	lea    rax,[rbp-0x40]
    3945:	48 89 d6             	mov    rsi,rdx
    3948:	48 89 c7             	mov    rdi,rax
    394b:	e8 a0 d8 ff ff       	call   11f0 <_ZNSt7__cxx1112basic_stringIcSt11char_traitsIcESaIcEEixEm@plt>
    3950:	0f b6 00             	movzx  eax,BYTE PTR [rax]
    3953:	3c 64                	cmp    al,0x64
    3955:	75 07                	jne    395e <_Z9ascii_artNSt7__cxx1112basic_stringIcSt11char_traitsIcESaIcEEE+0x2675>
    3957:	b8 01 00 00 00       	mov    eax,0x1
    395c:	eb 05                	jmp    3963 <_Z9ascii_artNSt7__cxx1112basic_stringIcSt11char_traitsIcESaIcEEE+0x267a>
    395e:	b8 00 00 00 00       	mov    eax,0x0
    3963:	84 c0                	test   al,al
    3965:	74 13                	je     397a <_Z9ascii_artNSt7__cxx1112basic_stringIcSt11char_traitsIcESaIcEEE+0x2691>
    3967:	48 8d 35 53 58 00 00 	lea    rsi,[rip+0x5853]        # 91c1 <_ZStL19piecewise_construct+0x1b9>
    396e:	48 8d 3d cb 76 00 00 	lea    rdi,[rip+0x76cb]        # b040 <_ZSt4cout@@GLIBCXX_3.4>
    3975:	e8 f6 d7 ff ff       	call   1170 <_ZStlsISt11char_traitsIcEERSt13basic_ostreamIcT_ES5_PKc@plt>
    397a:	8b 45 b0             	mov    eax,DWORD PTR [rbp-0x50]
    397d:	48 63 d0             	movsxd rdx,eax
    3980:	48 8d 45 c0          	lea    rax,[rbp-0x40]
    3984:	48 89 d6             	mov    rsi,rdx
    3987:	48 89 c7             	mov    rdi,rax
    398a:	e8 61 d8 ff ff       	call   11f0 <_ZNSt7__cxx1112basic_stringIcSt11char_traitsIcESaIcEEixEm@plt>
    398f:	0f b6 00             	movzx  eax,BYTE PTR [rax]
    3992:	3c 45                	cmp    al,0x45
    3994:	74 1c                	je     39b2 <_Z9ascii_artNSt7__cxx1112basic_stringIcSt11char_traitsIcESaIcEEE+0x26c9>
    3996:	8b 45 b0             	mov    eax,DWORD PTR [rbp-0x50]
    3999:	48 63 d0             	movsxd rdx,eax
    399c:	48 8d 45 c0          	lea    rax,[rbp-0x40]
    39a0:	48 89 d6             	mov    rsi,rdx
    39a3:	48 89 c7             	mov    rdi,rax
    39a6:	e8 45 d8 ff ff       	call   11f0 <_ZNSt7__cxx1112basic_stringIcSt11char_traitsIcESaIcEEixEm@plt>
    39ab:	0f b6 00             	movzx  eax,BYTE PTR [rax]
    39ae:	3c 65                	cmp    al,0x65
    39b0:	75 07                	jne    39b9 <_Z9ascii_artNSt7__cxx1112basic_stringIcSt11char_traitsIcESaIcEEE+0x26d0>
    39b2:	b8 01 00 00 00       	mov    eax,0x1
    39b7:	eb 05                	jmp    39be <_Z9ascii_artNSt7__cxx1112basic_stringIcSt11char_traitsIcESaIcEEE+0x26d5>
    39b9:	b8 00 00 00 00       	mov    eax,0x0
    39be:	84 c0                	test   al,al
    39c0:	74 13                	je     39d5 <_Z9ascii_artNSt7__cxx1112basic_stringIcSt11char_traitsIcESaIcEEE+0x26ec>
    39c2:	48 8d 35 59 59 00 00 	lea    rsi,[rip+0x5959]        # 9322 <_ZStL19piecewise_construct+0x31a>
    39c9:	48 8d 3d 70 76 00 00 	lea    rdi,[rip+0x7670]        # b040 <_ZSt4cout@@GLIBCXX_3.4>
    39d0:	e8 9b d7 ff ff       	call   1170 <_ZStlsISt11char_traitsIcEERSt13basic_ostreamIcT_ES5_PKc@plt>
    39d5:	8b 45 b0             	mov    eax,DWORD PTR [rbp-0x50]
    39d8:	48 63 d0             	movsxd rdx,eax
    39db:	48 8d 45 c0          	lea    rax,[rbp-0x40]
    39df:	48 89 d6             	mov    rsi,rdx
    39e2:	48 89 c7             	mov    rdi,rax
    39e5:	e8 06 d8 ff ff       	call   11f0 <_ZNSt7__cxx1112basic_stringIcSt11char_traitsIcESaIcEEixEm@plt>
    39ea:	0f b6 00             	movzx  eax,BYTE PTR [rax]
    39ed:	3c 46                	cmp    al,0x46
    39ef:	74 1c                	je     3a0d <_Z9ascii_artNSt7__cxx1112basic_stringIcSt11char_traitsIcESaIcEEE+0x2724>
    39f1:	8b 45 b0             	mov    eax,DWORD PTR [rbp-0x50]
    39f4:	48 63 d0             	movsxd rdx,eax
    39f7:	48 8d 45 c0          	lea    rax,[rbp-0x40]
    39fb:	48 89 d6             	mov    rsi,rdx
    39fe:	48 89 c7             	mov    rdi,rax
    3a01:	e8 ea d7 ff ff       	call   11f0 <_ZNSt7__cxx1112basic_stringIcSt11char_traitsIcESaIcEEixEm@plt>
    3a06:	0f b6 00             	movzx  eax,BYTE PTR [rax]
    3a09:	3c 66                	cmp    al,0x66
    3a0b:	75 07                	jne    3a14 <_Z9ascii_artNSt7__cxx1112basic_stringIcSt11char_traitsIcESaIcEEE+0x272b>
    3a0d:	b8 01 00 00 00       	mov    eax,0x1
    3a12:	eb 05                	jmp    3a19 <_Z9ascii_artNSt7__cxx1112basic_stringIcSt11char_traitsIcESaIcEEE+0x2730>
    3a14:	b8 00 00 00 00       	mov    eax,0x0
    3a19:	84 c0                	test   al,al
    3a1b:	74 13                	je     3a30 <_Z9ascii_artNSt7__cxx1112basic_stringIcSt11char_traitsIcESaIcEEE+0x2747>
    3a1d:	48 8d 35 07 59 00 00 	lea    rsi,[rip+0x5907]        # 932b <_ZStL19piecewise_construct+0x323>
    3a24:	48 8d 3d 15 76 00 00 	lea    rdi,[rip+0x7615]        # b040 <_ZSt4cout@@GLIBCXX_3.4>
    3a2b:	e8 40 d7 ff ff       	call   1170 <_ZStlsISt11char_traitsIcEERSt13basic_ostreamIcT_ES5_PKc@plt>
    3a30:	8b 45 b0             	mov    eax,DWORD PTR [rbp-0x50]
    3a33:	48 63 d0             	movsxd rdx,eax
    3a36:	48 8d 45 c0          	lea    rax,[rbp-0x40]
    3a3a:	48 89 d6             	mov    rsi,rdx
    3a3d:	48 89 c7             	mov    rdi,rax
    3a40:	e8 ab d7 ff ff       	call   11f0 <_ZNSt7__cxx1112basic_stringIcSt11char_traitsIcESaIcEEixEm@plt>
    3a45:	0f b6 00             	movzx  eax,BYTE PTR [rax]
    3a48:	3c 47                	cmp    al,0x47
    3a4a:	74 1c                	je     3a68 <_Z9ascii_artNSt7__cxx1112basic_stringIcSt11char_traitsIcESaIcEEE+0x277f>
    3a4c:	8b 45 b0             	mov    eax,DWORD PTR [rbp-0x50]
    3a4f:	48 63 d0             	movsxd rdx,eax
    3a52:	48 8d 45 c0          	lea    rax,[rbp-0x40]
    3a56:	48 89 d6             	mov    rsi,rdx
    3a59:	48 89 c7             	mov    rdi,rax
    3a5c:	e8 8f d7 ff ff       	call   11f0 <_ZNSt7__cxx1112basic_stringIcSt11char_traitsIcESaIcEEixEm@plt>
    3a61:	0f b6 00             	movzx  eax,BYTE PTR [rax]
    3a64:	3c 67                	cmp    al,0x67
    3a66:	75 07                	jne    3a6f <_Z9ascii_artNSt7__cxx1112basic_stringIcSt11char_traitsIcESaIcEEE+0x2786>
    3a68:	b8 01 00 00 00       	mov    eax,0x1
    3a6d:	eb 05                	jmp    3a74 <_Z9ascii_artNSt7__cxx1112basic_stringIcSt11char_traitsIcESaIcEEE+0x278b>
    3a6f:	b8 00 00 00 00       	mov    eax,0x0
    3a74:	84 c0                	test   al,al
    3a76:	74 13                	je     3a8b <_Z9ascii_artNSt7__cxx1112basic_stringIcSt11char_traitsIcESaIcEEE+0x27a2>
    3a78:	48 8d 35 b5 58 00 00 	lea    rsi,[rip+0x58b5]        # 9334 <_ZStL19piecewise_construct+0x32c>
    3a7f:	48 8d 3d ba 75 00 00 	lea    rdi,[rip+0x75ba]        # b040 <_ZSt4cout@@GLIBCXX_3.4>
    3a86:	e8 e5 d6 ff ff       	call   1170 <_ZStlsISt11char_traitsIcEERSt13basic_ostreamIcT_ES5_PKc@plt>
    3a8b:	8b 45 b0             	mov    eax,DWORD PTR [rbp-0x50]
    3a8e:	48 63 d0             	movsxd rdx,eax
    3a91:	48 8d 45 c0          	lea    rax,[rbp-0x40]
    3a95:	48 89 d6             	mov    rsi,rdx
    3a98:	48 89 c7             	mov    rdi,rax
    3a9b:	e8 50 d7 ff ff       	call   11f0 <_ZNSt7__cxx1112basic_stringIcSt11char_traitsIcESaIcEEixEm@plt>
    3aa0:	0f b6 00             	movzx  eax,BYTE PTR [rax]
    3aa3:	3c 48                	cmp    al,0x48
    3aa5:	74 1c                	je     3ac3 <_Z9ascii_artNSt7__cxx1112basic_stringIcSt11char_traitsIcESaIcEEE+0x27da>
    3aa7:	8b 45 b0             	mov    eax,DWORD PTR [rbp-0x50]
    3aaa:	48 63 d0             	movsxd rdx,eax
    3aad:	48 8d 45 c0          	lea    rax,[rbp-0x40]
    3ab1:	48 89 d6             	mov    rsi,rdx
    3ab4:	48 89 c7             	mov    rdi,rax
    3ab7:	e8 34 d7 ff ff       	call   11f0 <_ZNSt7__cxx1112basic_stringIcSt11char_traitsIcESaIcEEixEm@plt>
    3abc:	0f b6 00             	movzx  eax,BYTE PTR [rax]
    3abf:	3c 68                	cmp    al,0x68
    3ac1:	75 07                	jne    3aca <_Z9ascii_artNSt7__cxx1112basic_stringIcSt11char_traitsIcESaIcEEE+0x27e1>
    3ac3:	b8 01 00 00 00       	mov    eax,0x1
    3ac8:	eb 05                	jmp    3acf <_Z9ascii_artNSt7__cxx1112basic_stringIcSt11char_traitsIcESaIcEEE+0x27e6>
    3aca:	b8 00 00 00 00       	mov    eax,0x0
    3acf:	84 c0                	test   al,al
    3ad1:	74 13                	je     3ae6 <_Z9ascii_artNSt7__cxx1112basic_stringIcSt11char_traitsIcESaIcEEE+0x27fd>
    3ad3:	48 8d 35 63 58 00 00 	lea    rsi,[rip+0x5863]        # 933d <_ZStL19piecewise_construct+0x335>
    3ada:	48 8d 3d 5f 75 00 00 	lea    rdi,[rip+0x755f]        # b040 <_ZSt4cout@@GLIBCXX_3.4>
    3ae1:	e8 8a d6 ff ff       	call   1170 <_ZStlsISt11char_traitsIcEERSt13basic_ostreamIcT_ES5_PKc@plt>
    3ae6:	8b 45 b0             	mov    eax,DWORD PTR [rbp-0x50]
    3ae9:	48 63 d0             	movsxd rdx,eax
    3aec:	48 8d 45 c0          	lea    rax,[rbp-0x40]
    3af0:	48 89 d6             	mov    rsi,rdx
    3af3:	48 89 c7             	mov    rdi,rax
    3af6:	e8 f5 d6 ff ff       	call   11f0 <_ZNSt7__cxx1112basic_stringIcSt11char_traitsIcESaIcEEixEm@plt>
    3afb:	0f b6 00             	movzx  eax,BYTE PTR [rax]
    3afe:	3c 49                	cmp    al,0x49
    3b00:	74 1c                	je     3b1e <_Z9ascii_artNSt7__cxx1112basic_stringIcSt11char_traitsIcESaIcEEE+0x2835>
    3b02:	8b 45 b0             	mov    eax,DWORD PTR [rbp-0x50]
    3b05:	48 63 d0             	movsxd rdx,eax
    3b08:	48 8d 45 c0          	lea    rax,[rbp-0x40]
    3b0c:	48 89 d6             	mov    rsi,rdx
    3b0f:	48 89 c7             	mov    rdi,rax
    3b12:	e8 d9 d6 ff ff       	call   11f0 <_ZNSt7__cxx1112basic_stringIcSt11char_traitsIcESaIcEEixEm@plt>
    3b17:	0f b6 00             	movzx  eax,BYTE PTR [rax]
    3b1a:	3c 69                	cmp    al,0x69
    3b1c:	75 07                	jne    3b25 <_Z9ascii_artNSt7__cxx1112basic_stringIcSt11char_traitsIcESaIcEEE+0x283c>
    3b1e:	b8 01 00 00 00       	mov    eax,0x1
    3b23:	eb 05                	jmp    3b2a <_Z9ascii_artNSt7__cxx1112basic_stringIcSt11char_traitsIcESaIcEEE+0x2841>
    3b25:	b8 00 00 00 00       	mov    eax,0x0
    3b2a:	84 c0                	test   al,al
    3b2c:	74 13                	je     3b41 <_Z9ascii_artNSt7__cxx1112basic_stringIcSt11char_traitsIcESaIcEEE+0x2858>
    3b2e:	48 8d 35 11 58 00 00 	lea    rsi,[rip+0x5811]        # 9346 <_ZStL19piecewise_construct+0x33e>
    3b35:	48 8d 3d 04 75 00 00 	lea    rdi,[rip+0x7504]        # b040 <_ZSt4cout@@GLIBCXX_3.4>
    3b3c:	e8 2f d6 ff ff       	call   1170 <_ZStlsISt11char_traitsIcEERSt13basic_ostreamIcT_ES5_PKc@plt>
    3b41:	8b 45 b0             	mov    eax,DWORD PTR [rbp-0x50]
    3b44:	48 63 d0             	movsxd rdx,eax
    3b47:	48 8d 45 c0          	lea    rax,[rbp-0x40]
    3b4b:	48 89 d6             	mov    rsi,rdx
    3b4e:	48 89 c7             	mov    rdi,rax
    3b51:	e8 9a d6 ff ff       	call   11f0 <_ZNSt7__cxx1112basic_stringIcSt11char_traitsIcESaIcEEixEm@plt>
    3b56:	0f b6 00             	movzx  eax,BYTE PTR [rax]
    3b59:	3c 4a                	cmp    al,0x4a
    3b5b:	74 1c                	je     3b79 <_Z9ascii_artNSt7__cxx1112basic_stringIcSt11char_traitsIcESaIcEEE+0x2890>
    3b5d:	8b 45 b0             	mov    eax,DWORD PTR [rbp-0x50]
    3b60:	48 63 d0             	movsxd rdx,eax
    3b63:	48 8d 45 c0          	lea    rax,[rbp-0x40]
    3b67:	48 89 d6             	mov    rsi,rdx
    3b6a:	48 89 c7             	mov    rdi,rax
    3b6d:	e8 7e d6 ff ff       	call   11f0 <_ZNSt7__cxx1112basic_stringIcSt11char_traitsIcESaIcEEixEm@plt>
    3b72:	0f b6 00             	movzx  eax,BYTE PTR [rax]
    3b75:	3c 6a                	cmp    al,0x6a
    3b77:	75 07                	jne    3b80 <_Z9ascii_artNSt7__cxx1112basic_stringIcSt11char_traitsIcESaIcEEE+0x2897>
    3b79:	b8 01 00 00 00       	mov    eax,0x1
    3b7e:	eb 05                	jmp    3b85 <_Z9ascii_artNSt7__cxx1112basic_stringIcSt11char_traitsIcESaIcEEE+0x289c>
    3b80:	b8 00 00 00 00       	mov    eax,0x0
    3b85:	84 c0                	test   al,al
    3b87:	74 13                	je     3b9c <_Z9ascii_artNSt7__cxx1112basic_stringIcSt11char_traitsIcESaIcEEE+0x28b3>
    3b89:	48 8d 35 bf 57 00 00 	lea    rsi,[rip+0x57bf]        # 934f <_ZStL19piecewise_construct+0x347>
    3b90:	48 8d 3d a9 74 00 00 	lea    rdi,[rip+0x74a9]        # b040 <_ZSt4cout@@GLIBCXX_3.4>
    3b97:	e8 d4 d5 ff ff       	call   1170 <_ZStlsISt11char_traitsIcEERSt13basic_ostreamIcT_ES5_PKc@plt>
    3b9c:	8b 45 b0             	mov    eax,DWORD PTR [rbp-0x50]
    3b9f:	48 63 d0             	movsxd rdx,eax
    3ba2:	48 8d 45 c0          	lea    rax,[rbp-0x40]
    3ba6:	48 89 d6             	mov    rsi,rdx
    3ba9:	48 89 c7             	mov    rdi,rax
    3bac:	e8 3f d6 ff ff       	call   11f0 <_ZNSt7__cxx1112basic_stringIcSt11char_traitsIcESaIcEEixEm@plt>
    3bb1:	0f b6 00             	movzx  eax,BYTE PTR [rax]
    3bb4:	3c 4b                	cmp    al,0x4b
    3bb6:	74 1c                	je     3bd4 <_Z9ascii_artNSt7__cxx1112basic_stringIcSt11char_traitsIcESaIcEEE+0x28eb>
    3bb8:	8b 45 b0             	mov    eax,DWORD PTR [rbp-0x50]
    3bbb:	48 63 d0             	movsxd rdx,eax
    3bbe:	48 8d 45 c0          	lea    rax,[rbp-0x40]
    3bc2:	48 89 d6             	mov    rsi,rdx
    3bc5:	48 89 c7             	mov    rdi,rax
    3bc8:	e8 23 d6 ff ff       	call   11f0 <_ZNSt7__cxx1112basic_stringIcSt11char_traitsIcESaIcEEixEm@plt>
    3bcd:	0f b6 00             	movzx  eax,BYTE PTR [rax]
    3bd0:	3c 6b                	cmp    al,0x6b
    3bd2:	75 07                	jne    3bdb <_Z9ascii_artNSt7__cxx1112basic_stringIcSt11char_traitsIcESaIcEEE+0x28f2>
    3bd4:	b8 01 00 00 00       	mov    eax,0x1
    3bd9:	eb 05                	jmp    3be0 <_Z9ascii_artNSt7__cxx1112basic_stringIcSt11char_traitsIcESaIcEEE+0x28f7>
    3bdb:	b8 00 00 00 00       	mov    eax,0x0
    3be0:	84 c0                	test   al,al
    3be2:	74 13                	je     3bf7 <_Z9ascii_artNSt7__cxx1112basic_stringIcSt11char_traitsIcESaIcEEE+0x290e>
    3be4:	48 8d 35 6d 57 00 00 	lea    rsi,[rip+0x576d]        # 9358 <_ZStL19piecewise_construct+0x350>
    3beb:	48 8d 3d 4e 74 00 00 	lea    rdi,[rip+0x744e]        # b040 <_ZSt4cout@@GLIBCXX_3.4>
    3bf2:	e8 79 d5 ff ff       	call   1170 <_ZStlsISt11char_traitsIcEERSt13basic_ostreamIcT_ES5_PKc@plt>
    3bf7:	8b 45 b0             	mov    eax,DWORD PTR [rbp-0x50]
    3bfa:	48 63 d0             	movsxd rdx,eax
    3bfd:	48 8d 45 c0          	lea    rax,[rbp-0x40]
    3c01:	48 89 d6             	mov    rsi,rdx
    3c04:	48 89 c7             	mov    rdi,rax
    3c07:	e8 e4 d5 ff ff       	call   11f0 <_ZNSt7__cxx1112basic_stringIcSt11char_traitsIcESaIcEEixEm@plt>
    3c0c:	0f b6 00             	movzx  eax,BYTE PTR [rax]
    3c0f:	3c 4c                	cmp    al,0x4c
    3c11:	74 1c                	je     3c2f <_Z9ascii_artNSt7__cxx1112basic_stringIcSt11char_traitsIcESaIcEEE+0x2946>
    3c13:	8b 45 b0             	mov    eax,DWORD PTR [rbp-0x50]
    3c16:	48 63 d0             	movsxd rdx,eax
    3c19:	48 8d 45 c0          	lea    rax,[rbp-0x40]
    3c1d:	48 89 d6             	mov    rsi,rdx
    3c20:	48 89 c7             	mov    rdi,rax
    3c23:	e8 c8 d5 ff ff       	call   11f0 <_ZNSt7__cxx1112basic_stringIcSt11char_traitsIcESaIcEEixEm@plt>
    3c28:	0f b6 00             	movzx  eax,BYTE PTR [rax]
    3c2b:	3c 6c                	cmp    al,0x6c
    3c2d:	75 07                	jne    3c36 <_Z9ascii_artNSt7__cxx1112basic_stringIcSt11char_traitsIcESaIcEEE+0x294d>
    3c2f:	b8 01 00 00 00       	mov    eax,0x1
    3c34:	eb 05                	jmp    3c3b <_Z9ascii_artNSt7__cxx1112basic_stringIcSt11char_traitsIcESaIcEEE+0x2952>
    3c36:	b8 00 00 00 00       	mov    eax,0x0
    3c3b:	84 c0                	test   al,al
    3c3d:	74 13                	je     3c52 <_Z9ascii_artNSt7__cxx1112basic_stringIcSt11char_traitsIcESaIcEEE+0x2969>
    3c3f:	48 8d 35 9f 55 00 00 	lea    rsi,[rip+0x559f]        # 91e5 <_ZStL19piecewise_construct+0x1dd>
    3c46:	48 8d 3d f3 73 00 00 	lea    rdi,[rip+0x73f3]        # b040 <_ZSt4cout@@GLIBCXX_3.4>
    3c4d:	e8 1e d5 ff ff       	call   1170 <_ZStlsISt11char_traitsIcEERSt13basic_ostreamIcT_ES5_PKc@plt>
    3c52:	8b 45 b0             	mov    eax,DWORD PTR [rbp-0x50]
    3c55:	48 63 d0             	movsxd rdx,eax
    3c58:	48 8d 45 c0          	lea    rax,[rbp-0x40]
    3c5c:	48 89 d6             	mov    rsi,rdx
    3c5f:	48 89 c7             	mov    rdi,rax
    3c62:	e8 89 d5 ff ff       	call   11f0 <_ZNSt7__cxx1112basic_stringIcSt11char_traitsIcESaIcEEixEm@plt>
    3c67:	0f b6 00             	movzx  eax,BYTE PTR [rax]
    3c6a:	3c 4d                	cmp    al,0x4d
    3c6c:	74 1c                	je     3c8a <_Z9ascii_artNSt7__cxx1112basic_stringIcSt11char_traitsIcESaIcEEE+0x29a1>
    3c6e:	8b 45 b0             	mov    eax,DWORD PTR [rbp-0x50]
    3c71:	48 63 d0             	movsxd rdx,eax
    3c74:	48 8d 45 c0          	lea    rax,[rbp-0x40]
    3c78:	48 89 d6             	mov    rsi,rdx
    3c7b:	48 89 c7             	mov    rdi,rax
    3c7e:	e8 6d d5 ff ff       	call   11f0 <_ZNSt7__cxx1112basic_stringIcSt11char_traitsIcESaIcEEixEm@plt>
    3c83:	0f b6 00             	movzx  eax,BYTE PTR [rax]
    3c86:	3c 6d                	cmp    al,0x6d
    3c88:	75 07                	jne    3c91 <_Z9ascii_artNSt7__cxx1112basic_stringIcSt11char_traitsIcESaIcEEE+0x29a8>
    3c8a:	b8 01 00 00 00       	mov    eax,0x1
    3c8f:	eb 05                	jmp    3c96 <_Z9ascii_artNSt7__cxx1112basic_stringIcSt11char_traitsIcESaIcEEE+0x29ad>
    3c91:	b8 00 00 00 00       	mov    eax,0x0
    3c96:	84 c0                	test   al,al
    3c98:	74 13                	je     3cad <_Z9ascii_artNSt7__cxx1112basic_stringIcSt11char_traitsIcESaIcEEE+0x29c4>
    3c9a:	48 8d 35 c0 56 00 00 	lea    rsi,[rip+0x56c0]        # 9361 <_ZStL19piecewise_construct+0x359>
    3ca1:	48 8d 3d 98 73 00 00 	lea    rdi,[rip+0x7398]        # b040 <_ZSt4cout@@GLIBCXX_3.4>
    3ca8:	e8 c3 d4 ff ff       	call   1170 <_ZStlsISt11char_traitsIcEERSt13basic_ostreamIcT_ES5_PKc@plt>
    3cad:	8b 45 b0             	mov    eax,DWORD PTR [rbp-0x50]
    3cb0:	48 63 d0             	movsxd rdx,eax
    3cb3:	48 8d 45 c0          	lea    rax,[rbp-0x40]
    3cb7:	48 89 d6             	mov    rsi,rdx
    3cba:	48 89 c7             	mov    rdi,rax
    3cbd:	e8 2e d5 ff ff       	call   11f0 <_ZNSt7__cxx1112basic_stringIcSt11char_traitsIcESaIcEEixEm@plt>
    3cc2:	0f b6 00             	movzx  eax,BYTE PTR [rax]
    3cc5:	3c 4e                	cmp    al,0x4e
    3cc7:	74 1c                	je     3ce5 <_Z9ascii_artNSt7__cxx1112basic_stringIcSt11char_traitsIcESaIcEEE+0x29fc>
    3cc9:	8b 45 b0             	mov    eax,DWORD PTR [rbp-0x50]
    3ccc:	48 63 d0             	movsxd rdx,eax
    3ccf:	48 8d 45 c0          	lea    rax,[rbp-0x40]
    3cd3:	48 89 d6             	mov    rsi,rdx
    3cd6:	48 89 c7             	mov    rdi,rax
    3cd9:	e8 12 d5 ff ff       	call   11f0 <_ZNSt7__cxx1112basic_stringIcSt11char_traitsIcESaIcEEixEm@plt>
    3cde:	0f b6 00             	movzx  eax,BYTE PTR [rax]
    3ce1:	3c 6e                	cmp    al,0x6e
    3ce3:	75 07                	jne    3cec <_Z9ascii_artNSt7__cxx1112basic_stringIcSt11char_traitsIcESaIcEEE+0x2a03>
    3ce5:	b8 01 00 00 00       	mov    eax,0x1
    3cea:	eb 05                	jmp    3cf1 <_Z9ascii_artNSt7__cxx1112basic_stringIcSt11char_traitsIcESaIcEEE+0x2a08>
    3cec:	b8 00 00 00 00       	mov    eax,0x0
    3cf1:	84 c0                	test   al,al
    3cf3:	74 13                	je     3d08 <_Z9ascii_artNSt7__cxx1112basic_stringIcSt11char_traitsIcESaIcEEE+0x2a1f>
    3cf5:	48 8d 35 6f 56 00 00 	lea    rsi,[rip+0x566f]        # 936b <_ZStL19piecewise_construct+0x363>
    3cfc:	48 8d 3d 3d 73 00 00 	lea    rdi,[rip+0x733d]        # b040 <_ZSt4cout@@GLIBCXX_3.4>
    3d03:	e8 68 d4 ff ff       	call   1170 <_ZStlsISt11char_traitsIcEERSt13basic_ostreamIcT_ES5_PKc@plt>
    3d08:	8b 45 b0             	mov    eax,DWORD PTR [rbp-0x50]
    3d0b:	48 63 d0             	movsxd rdx,eax
    3d0e:	48 8d 45 c0          	lea    rax,[rbp-0x40]
    3d12:	48 89 d6             	mov    rsi,rdx
    3d15:	48 89 c7             	mov    rdi,rax
    3d18:	e8 d3 d4 ff ff       	call   11f0 <_ZNSt7__cxx1112basic_stringIcSt11char_traitsIcESaIcEEixEm@plt>
    3d1d:	0f b6 00             	movzx  eax,BYTE PTR [rax]
    3d20:	3c 4f                	cmp    al,0x4f
    3d22:	74 1c                	je     3d40 <_Z9ascii_artNSt7__cxx1112basic_stringIcSt11char_traitsIcESaIcEEE+0x2a57>
    3d24:	8b 45 b0             	mov    eax,DWORD PTR [rbp-0x50]
    3d27:	48 63 d0             	movsxd rdx,eax
    3d2a:	48 8d 45 c0          	lea    rax,[rbp-0x40]
    3d2e:	48 89 d6             	mov    rsi,rdx
    3d31:	48 89 c7             	mov    rdi,rax
    3d34:	e8 b7 d4 ff ff       	call   11f0 <_ZNSt7__cxx1112basic_stringIcSt11char_traitsIcESaIcEEixEm@plt>
    3d39:	0f b6 00             	movzx  eax,BYTE PTR [rax]
    3d3c:	3c 6f                	cmp    al,0x6f
    3d3e:	75 07                	jne    3d47 <_Z9ascii_artNSt7__cxx1112basic_stringIcSt11char_traitsIcESaIcEEE+0x2a5e>
    3d40:	b8 01 00 00 00       	mov    eax,0x1
    3d45:	eb 05                	jmp    3d4c <_Z9ascii_artNSt7__cxx1112basic_stringIcSt11char_traitsIcESaIcEEE+0x2a63>
    3d47:	b8 00 00 00 00       	mov    eax,0x0
    3d4c:	84 c0                	test   al,al
    3d4e:	74 13                	je     3d63 <_Z9ascii_artNSt7__cxx1112basic_stringIcSt11char_traitsIcESaIcEEE+0x2a7a>
    3d50:	48 8d 35 6a 54 00 00 	lea    rsi,[rip+0x546a]        # 91c1 <_ZStL19piecewise_construct+0x1b9>
    3d57:	48 8d 3d e2 72 00 00 	lea    rdi,[rip+0x72e2]        # b040 <_ZSt4cout@@GLIBCXX_3.4>
    3d5e:	e8 0d d4 ff ff       	call   1170 <_ZStlsISt11char_traitsIcEERSt13basic_ostreamIcT_ES5_PKc@plt>
    3d63:	8b 45 b0             	mov    eax,DWORD PTR [rbp-0x50]
    3d66:	48 63 d0             	movsxd rdx,eax
    3d69:	48 8d 45 c0          	lea    rax,[rbp-0x40]
    3d6d:	48 89 d6             	mov    rsi,rdx
    3d70:	48 89 c7             	mov    rdi,rax
    3d73:	e8 78 d4 ff ff       	call   11f0 <_ZNSt7__cxx1112basic_stringIcSt11char_traitsIcESaIcEEixEm@plt>
    3d78:	0f b6 00             	movzx  eax,BYTE PTR [rax]
    3d7b:	3c 50                	cmp    al,0x50
    3d7d:	74 1c                	je     3d9b <_Z9ascii_artNSt7__cxx1112basic_stringIcSt11char_traitsIcESaIcEEE+0x2ab2>
    3d7f:	8b 45 b0             	mov    eax,DWORD PTR [rbp-0x50]
    3d82:	48 63 d0             	movsxd rdx,eax
    3d85:	48 8d 45 c0          	lea    rax,[rbp-0x40]
    3d89:	48 89 d6             	mov    rsi,rdx
    3d8c:	48 89 c7             	mov    rdi,rax
    3d8f:	e8 5c d4 ff ff       	call   11f0 <_ZNSt7__cxx1112basic_stringIcSt11char_traitsIcESaIcEEixEm@plt>
    3d94:	0f b6 00             	movzx  eax,BYTE PTR [rax]
    3d97:	3c 70                	cmp    al,0x70
    3d99:	75 07                	jne    3da2 <_Z9ascii_artNSt7__cxx1112basic_stringIcSt11char_traitsIcESaIcEEE+0x2ab9>
    3d9b:	b8 01 00 00 00       	mov    eax,0x1
    3da0:	eb 05                	jmp    3da7 <_Z9ascii_artNSt7__cxx1112basic_stringIcSt11char_traitsIcESaIcEEE+0x2abe>
    3da2:	b8 00 00 00 00       	mov    eax,0x0
    3da7:	84 c0                	test   al,al
    3da9:	74 13                	je     3dbe <_Z9ascii_artNSt7__cxx1112basic_stringIcSt11char_traitsIcESaIcEEE+0x2ad5>
    3dab:	48 8d 35 5e 55 00 00 	lea    rsi,[rip+0x555e]        # 9310 <_ZStL19piecewise_construct+0x308>
    3db2:	48 8d 3d 87 72 00 00 	lea    rdi,[rip+0x7287]        # b040 <_ZSt4cout@@GLIBCXX_3.4>
    3db9:	e8 b2 d3 ff ff       	call   1170 <_ZStlsISt11char_traitsIcEERSt13basic_ostreamIcT_ES5_PKc@plt>
    3dbe:	8b 45 b0             	mov    eax,DWORD PTR [rbp-0x50]
    3dc1:	48 63 d0             	movsxd rdx,eax
    3dc4:	48 8d 45 c0          	lea    rax,[rbp-0x40]
    3dc8:	48 89 d6             	mov    rsi,rdx
    3dcb:	48 89 c7             	mov    rdi,rax
    3dce:	e8 1d d4 ff ff       	call   11f0 <_ZNSt7__cxx1112basic_stringIcSt11char_traitsIcESaIcEEixEm@plt>
    3dd3:	0f b6 00             	movzx  eax,BYTE PTR [rax]
    3dd6:	3c 51                	cmp    al,0x51
    3dd8:	74 1c                	je     3df6 <_Z9ascii_artNSt7__cxx1112basic_stringIcSt11char_traitsIcESaIcEEE+0x2b0d>
    3dda:	8b 45 b0             	mov    eax,DWORD PTR [rbp-0x50]
    3ddd:	48 63 d0             	movsxd rdx,eax
    3de0:	48 8d 45 c0          	lea    rax,[rbp-0x40]
    3de4:	48 89 d6             	mov    rsi,rdx
    3de7:	48 89 c7             	mov    rdi,rax
    3dea:	e8 01 d4 ff ff       	call   11f0 <_ZNSt7__cxx1112basic_stringIcSt11char_traitsIcESaIcEEixEm@plt>
    3def:	0f b6 00             	movzx  eax,BYTE PTR [rax]
    3df2:	3c 71                	cmp    al,0x71
    3df4:	75 07                	jne    3dfd <_Z9ascii_artNSt7__cxx1112basic_stringIcSt11char_traitsIcESaIcEEE+0x2b14>
    3df6:	b8 01 00 00 00       	mov    eax,0x1
    3dfb:	eb 05                	jmp    3e02 <_Z9ascii_artNSt7__cxx1112basic_stringIcSt11char_traitsIcESaIcEEE+0x2b19>
    3dfd:	b8 00 00 00 00       	mov    eax,0x0
    3e02:	84 c0                	test   al,al
    3e04:	74 13                	je     3e19 <_Z9ascii_artNSt7__cxx1112basic_stringIcSt11char_traitsIcESaIcEEE+0x2b30>
    3e06:	48 8d 35 b4 53 00 00 	lea    rsi,[rip+0x53b4]        # 91c1 <_ZStL19piecewise_construct+0x1b9>
    3e0d:	48 8d 3d 2c 72 00 00 	lea    rdi,[rip+0x722c]        # b040 <_ZSt4cout@@GLIBCXX_3.4>
    3e14:	e8 57 d3 ff ff       	call   1170 <_ZStlsISt11char_traitsIcEERSt13basic_ostreamIcT_ES5_PKc@plt>
    3e19:	8b 45 b0             	mov    eax,DWORD PTR [rbp-0x50]
    3e1c:	48 63 d0             	movsxd rdx,eax
    3e1f:	48 8d 45 c0          	lea    rax,[rbp-0x40]
    3e23:	48 89 d6             	mov    rsi,rdx
    3e26:	48 89 c7             	mov    rdi,rax
    3e29:	e8 c2 d3 ff ff       	call   11f0 <_ZNSt7__cxx1112basic_stringIcSt11char_traitsIcESaIcEEixEm@plt>
    3e2e:	0f b6 00             	movzx  eax,BYTE PTR [rax]
    3e31:	3c 52                	cmp    al,0x52
    3e33:	74 1c                	je     3e51 <_Z9ascii_artNSt7__cxx1112basic_stringIcSt11char_traitsIcESaIcEEE+0x2b68>
    3e35:	8b 45 b0             	mov    eax,DWORD PTR [rbp-0x50]
    3e38:	48 63 d0             	movsxd rdx,eax
    3e3b:	48 8d 45 c0          	lea    rax,[rbp-0x40]
    3e3f:	48 89 d6             	mov    rsi,rdx
    3e42:	48 89 c7             	mov    rdi,rax
    3e45:	e8 a6 d3 ff ff       	call   11f0 <_ZNSt7__cxx1112basic_stringIcSt11char_traitsIcESaIcEEixEm@plt>
    3e4a:	0f b6 00             	movzx  eax,BYTE PTR [rax]
    3e4d:	3c 72                	cmp    al,0x72
    3e4f:	75 07                	jne    3e58 <_Z9ascii_artNSt7__cxx1112basic_stringIcSt11char_traitsIcESaIcEEE+0x2b6f>
    3e51:	b8 01 00 00 00       	mov    eax,0x1
    3e56:	eb 05                	jmp    3e5d <_Z9ascii_artNSt7__cxx1112basic_stringIcSt11char_traitsIcESaIcEEE+0x2b74>
    3e58:	b8 00 00 00 00       	mov    eax,0x0
    3e5d:	84 c0                	test   al,al
    3e5f:	74 13                	je     3e74 <_Z9ascii_artNSt7__cxx1112basic_stringIcSt11char_traitsIcESaIcEEE+0x2b8b>
    3e61:	48 8d 35 a8 54 00 00 	lea    rsi,[rip+0x54a8]        # 9310 <_ZStL19piecewise_construct+0x308>
    3e68:	48 8d 3d d1 71 00 00 	lea    rdi,[rip+0x71d1]        # b040 <_ZSt4cout@@GLIBCXX_3.4>
    3e6f:	e8 fc d2 ff ff       	call   1170 <_ZStlsISt11char_traitsIcEERSt13basic_ostreamIcT_ES5_PKc@plt>
    3e74:	8b 45 b0             	mov    eax,DWORD PTR [rbp-0x50]
    3e77:	48 63 d0             	movsxd rdx,eax
    3e7a:	48 8d 45 c0          	lea    rax,[rbp-0x40]
    3e7e:	48 89 d6             	mov    rsi,rdx
    3e81:	48 89 c7             	mov    rdi,rax
    3e84:	e8 67 d3 ff ff       	call   11f0 <_ZNSt7__cxx1112basic_stringIcSt11char_traitsIcESaIcEEixEm@plt>
    3e89:	0f b6 00             	movzx  eax,BYTE PTR [rax]
    3e8c:	3c 53                	cmp    al,0x53
    3e8e:	74 1c                	je     3eac <_Z9ascii_artNSt7__cxx1112basic_stringIcSt11char_traitsIcESaIcEEE+0x2bc3>
    3e90:	8b 45 b0             	mov    eax,DWORD PTR [rbp-0x50]
    3e93:	48 63 d0             	movsxd rdx,eax
    3e96:	48 8d 45 c0          	lea    rax,[rbp-0x40]
    3e9a:	48 89 d6             	mov    rsi,rdx
    3e9d:	48 89 c7             	mov    rdi,rax
    3ea0:	e8 4b d3 ff ff       	call   11f0 <_ZNSt7__cxx1112basic_stringIcSt11char_traitsIcESaIcEEixEm@plt>
    3ea5:	0f b6 00             	movzx  eax,BYTE PTR [rax]
    3ea8:	3c 73                	cmp    al,0x73
    3eaa:	75 07                	jne    3eb3 <_Z9ascii_artNSt7__cxx1112basic_stringIcSt11char_traitsIcESaIcEEE+0x2bca>
    3eac:	b8 01 00 00 00       	mov    eax,0x1
    3eb1:	eb 05                	jmp    3eb8 <_Z9ascii_artNSt7__cxx1112basic_stringIcSt11char_traitsIcESaIcEEE+0x2bcf>
    3eb3:	b8 00 00 00 00       	mov    eax,0x0
    3eb8:	84 c0                	test   al,al
    3eba:	74 13                	je     3ecf <_Z9ascii_artNSt7__cxx1112basic_stringIcSt11char_traitsIcESaIcEEE+0x2be6>
    3ebc:	48 8d 35 b1 54 00 00 	lea    rsi,[rip+0x54b1]        # 9374 <_ZStL19piecewise_construct+0x36c>
    3ec3:	48 8d 3d 76 71 00 00 	lea    rdi,[rip+0x7176]        # b040 <_ZSt4cout@@GLIBCXX_3.4>
    3eca:	e8 a1 d2 ff ff       	call   1170 <_ZStlsISt11char_traitsIcEERSt13basic_ostreamIcT_ES5_PKc@plt>
    3ecf:	8b 45 b0             	mov    eax,DWORD PTR [rbp-0x50]
    3ed2:	48 63 d0             	movsxd rdx,eax
    3ed5:	48 8d 45 c0          	lea    rax,[rbp-0x40]
    3ed9:	48 89 d6             	mov    rsi,rdx
    3edc:	48 89 c7             	mov    rdi,rax
    3edf:	e8 0c d3 ff ff       	call   11f0 <_ZNSt7__cxx1112basic_stringIcSt11char_traitsIcESaIcEEixEm@plt>
    3ee4:	0f b6 00             	movzx  eax,BYTE PTR [rax]
    3ee7:	3c 54                	cmp    al,0x54
    3ee9:	74 1c                	je     3f07 <_Z9ascii_artNSt7__cxx1112basic_stringIcSt11char_traitsIcESaIcEEE+0x2c1e>
    3eeb:	8b 45 b0             	mov    eax,DWORD PTR [rbp-0x50]
    3eee:	48 63 d0             	movsxd rdx,eax
    3ef1:	48 8d 45 c0          	lea    rax,[rbp-0x40]
    3ef5:	48 89 d6             	mov    rsi,rdx
    3ef8:	48 89 c7             	mov    rdi,rax
    3efb:	e8 f0 d2 ff ff       	call   11f0 <_ZNSt7__cxx1112basic_stringIcSt11char_traitsIcESaIcEEixEm@plt>
    3f00:	0f b6 00             	movzx  eax,BYTE PTR [rax]
    3f03:	3c 74                	cmp    al,0x74
    3f05:	75 07                	jne    3f0e <_Z9ascii_artNSt7__cxx1112basic_stringIcSt11char_traitsIcESaIcEEE+0x2c25>
    3f07:	b8 01 00 00 00       	mov    eax,0x1
    3f0c:	eb 05                	jmp    3f13 <_Z9ascii_artNSt7__cxx1112basic_stringIcSt11char_traitsIcESaIcEEE+0x2c2a>
    3f0e:	b8 00 00 00 00       	mov    eax,0x0
    3f13:	84 c0                	test   al,al
    3f15:	74 13                	je     3f2a <_Z9ascii_artNSt7__cxx1112basic_stringIcSt11char_traitsIcESaIcEEE+0x2c41>
    3f17:	48 8d 35 28 54 00 00 	lea    rsi,[rip+0x5428]        # 9346 <_ZStL19piecewise_construct+0x33e>
    3f1e:	48 8d 3d 1b 71 00 00 	lea    rdi,[rip+0x711b]        # b040 <_ZSt4cout@@GLIBCXX_3.4>
    3f25:	e8 46 d2 ff ff       	call   1170 <_ZStlsISt11char_traitsIcEERSt13basic_ostreamIcT_ES5_PKc@plt>
    3f2a:	8b 45 b0             	mov    eax,DWORD PTR [rbp-0x50]
    3f2d:	48 63 d0             	movsxd rdx,eax
    3f30:	48 8d 45 c0          	lea    rax,[rbp-0x40]
    3f34:	48 89 d6             	mov    rsi,rdx
    3f37:	48 89 c7             	mov    rdi,rax
    3f3a:	e8 b1 d2 ff ff       	call   11f0 <_ZNSt7__cxx1112basic_stringIcSt11char_traitsIcESaIcEEixEm@plt>
    3f3f:	0f b6 00             	movzx  eax,BYTE PTR [rax]
    3f42:	3c 55                	cmp    al,0x55
    3f44:	74 1c                	je     3f62 <_Z9ascii_artNSt7__cxx1112basic_stringIcSt11char_traitsIcESaIcEEE+0x2c79>
    3f46:	8b 45 b0             	mov    eax,DWORD PTR [rbp-0x50]
    3f49:	48 63 d0             	movsxd rdx,eax
    3f4c:	48 8d 45 c0          	lea    rax,[rbp-0x40]
    3f50:	48 89 d6             	mov    rsi,rdx
    3f53:	48 89 c7             	mov    rdi,rax
    3f56:	e8 95 d2 ff ff       	call   11f0 <_ZNSt7__cxx1112basic_stringIcSt11char_traitsIcESaIcEEixEm@plt>
    3f5b:	0f b6 00             	movzx  eax,BYTE PTR [rax]
    3f5e:	3c 75                	cmp    al,0x75
    3f60:	75 07                	jne    3f69 <_Z9ascii_artNSt7__cxx1112basic_stringIcSt11char_traitsIcESaIcEEE+0x2c80>
    3f62:	b8 01 00 00 00       	mov    eax,0x1
    3f67:	eb 05                	jmp    3f6e <_Z9ascii_artNSt7__cxx1112basic_stringIcSt11char_traitsIcESaIcEEE+0x2c85>
    3f69:	b8 00 00 00 00       	mov    eax,0x0
    3f6e:	84 c0                	test   al,al
    3f70:	74 13                	je     3f85 <_Z9ascii_artNSt7__cxx1112basic_stringIcSt11char_traitsIcESaIcEEE+0x2c9c>
    3f72:	48 8d 35 48 52 00 00 	lea    rsi,[rip+0x5248]        # 91c1 <_ZStL19piecewise_construct+0x1b9>
    3f79:	48 8d 3d c0 70 00 00 	lea    rdi,[rip+0x70c0]        # b040 <_ZSt4cout@@GLIBCXX_3.4>
    3f80:	e8 eb d1 ff ff       	call   1170 <_ZStlsISt11char_traitsIcEERSt13basic_ostreamIcT_ES5_PKc@plt>
    3f85:	8b 45 b0             	mov    eax,DWORD PTR [rbp-0x50]
    3f88:	48 63 d0             	movsxd rdx,eax
    3f8b:	48 8d 45 c0          	lea    rax,[rbp-0x40]
    3f8f:	48 89 d6             	mov    rsi,rdx
    3f92:	48 89 c7             	mov    rdi,rax
    3f95:	e8 56 d2 ff ff       	call   11f0 <_ZNSt7__cxx1112basic_stringIcSt11char_traitsIcESaIcEEixEm@plt>
    3f9a:	0f b6 00             	movzx  eax,BYTE PTR [rax]
    3f9d:	3c 56                	cmp    al,0x56
    3f9f:	74 1c                	je     3fbd <_Z9ascii_artNSt7__cxx1112basic_stringIcSt11char_traitsIcESaIcEEE+0x2cd4>
    3fa1:	8b 45 b0             	mov    eax,DWORD PTR [rbp-0x50]
    3fa4:	48 63 d0             	movsxd rdx,eax
    3fa7:	48 8d 45 c0          	lea    rax,[rbp-0x40]
    3fab:	48 89 d6             	mov    rsi,rdx
    3fae:	48 89 c7             	mov    rdi,rax
    3fb1:	e8 3a d2 ff ff       	call   11f0 <_ZNSt7__cxx1112basic_stringIcSt11char_traitsIcESaIcEEixEm@plt>
    3fb6:	0f b6 00             	movzx  eax,BYTE PTR [rax]
    3fb9:	3c 76                	cmp    al,0x76
    3fbb:	75 07                	jne    3fc4 <_Z9ascii_artNSt7__cxx1112basic_stringIcSt11char_traitsIcESaIcEEE+0x2cdb>
    3fbd:	b8 01 00 00 00       	mov    eax,0x1
    3fc2:	eb 05                	jmp    3fc9 <_Z9ascii_artNSt7__cxx1112basic_stringIcSt11char_traitsIcESaIcEEE+0x2ce0>
    3fc4:	b8 00 00 00 00       	mov    eax,0x0
    3fc9:	84 c0                	test   al,al
    3fcb:	74 13                	je     3fe0 <_Z9ascii_artNSt7__cxx1112basic_stringIcSt11char_traitsIcESaIcEEE+0x2cf7>
    3fcd:	48 8d 35 ed 51 00 00 	lea    rsi,[rip+0x51ed]        # 91c1 <_ZStL19piecewise_construct+0x1b9>
    3fd4:	48 8d 3d 65 70 00 00 	lea    rdi,[rip+0x7065]        # b040 <_ZSt4cout@@GLIBCXX_3.4>
    3fdb:	e8 90 d1 ff ff       	call   1170 <_ZStlsISt11char_traitsIcEERSt13basic_ostreamIcT_ES5_PKc@plt>
    3fe0:	8b 45 b0             	mov    eax,DWORD PTR [rbp-0x50]
    3fe3:	48 63 d0             	movsxd rdx,eax
    3fe6:	48 8d 45 c0          	lea    rax,[rbp-0x40]
    3fea:	48 89 d6             	mov    rsi,rdx
    3fed:	48 89 c7             	mov    rdi,rax
    3ff0:	e8 fb d1 ff ff       	call   11f0 <_ZNSt7__cxx1112basic_stringIcSt11char_traitsIcESaIcEEixEm@plt>
    3ff5:	0f b6 00             	movzx  eax,BYTE PTR [rax]
    3ff8:	3c 57                	cmp    al,0x57
    3ffa:	74 1c                	je     4018 <_Z9ascii_artNSt7__cxx1112basic_stringIcSt11char_traitsIcESaIcEEE+0x2d2f>
    3ffc:	8b 45 b0             	mov    eax,DWORD PTR [rbp-0x50]
    3fff:	48 63 d0             	movsxd rdx,eax
    4002:	48 8d 45 c0          	lea    rax,[rbp-0x40]
    4006:	48 89 d6             	mov    rsi,rdx
    4009:	48 89 c7             	mov    rdi,rax
    400c:	e8 df d1 ff ff       	call   11f0 <_ZNSt7__cxx1112basic_stringIcSt11char_traitsIcESaIcEEixEm@plt>
    4011:	0f b6 00             	movzx  eax,BYTE PTR [rax]
    4014:	3c 77                	cmp    al,0x77
    4016:	75 07                	jne    401f <_Z9ascii_artNSt7__cxx1112basic_stringIcSt11char_traitsIcESaIcEEE+0x2d36>
    4018:	b8 01 00 00 00       	mov    eax,0x1
    401d:	eb 05                	jmp    4024 <_Z9ascii_artNSt7__cxx1112basic_stringIcSt11char_traitsIcESaIcEEE+0x2d3b>
    401f:	b8 00 00 00 00       	mov    eax,0x0
    4024:	84 c0                	test   al,al
    4026:	74 13                	je     403b <_Z9ascii_artNSt7__cxx1112basic_stringIcSt11char_traitsIcESaIcEEE+0x2d52>
    4028:	48 8d 35 e4 51 00 00 	lea    rsi,[rip+0x51e4]        # 9213 <_ZStL19piecewise_construct+0x20b>
    402f:	48 8d 3d 0a 70 00 00 	lea    rdi,[rip+0x700a]        # b040 <_ZSt4cout@@GLIBCXX_3.4>
    4036:	e8 35 d1 ff ff       	call   1170 <_ZStlsISt11char_traitsIcEERSt13basic_ostreamIcT_ES5_PKc@plt>
    403b:	8b 45 b0             	mov    eax,DWORD PTR [rbp-0x50]
    403e:	48 63 d0             	movsxd rdx,eax
    4041:	48 8d 45 c0          	lea    rax,[rbp-0x40]
    4045:	48 89 d6             	mov    rsi,rdx
    4048:	48 89 c7             	mov    rdi,rax
    404b:	e8 a0 d1 ff ff       	call   11f0 <_ZNSt7__cxx1112basic_stringIcSt11char_traitsIcESaIcEEixEm@plt>
    4050:	0f b6 00             	movzx  eax,BYTE PTR [rax]
    4053:	3c 58                	cmp    al,0x58
    4055:	74 1c                	je     4073 <_Z9ascii_artNSt7__cxx1112basic_stringIcSt11char_traitsIcESaIcEEE+0x2d8a>
    4057:	8b 45 b0             	mov    eax,DWORD PTR [rbp-0x50]
    405a:	48 63 d0             	movsxd rdx,eax
    405d:	48 8d 45 c0          	lea    rax,[rbp-0x40]
    4061:	48 89 d6             	mov    rsi,rdx
    4064:	48 89 c7             	mov    rdi,rax
    4067:	e8 84 d1 ff ff       	call   11f0 <_ZNSt7__cxx1112basic_stringIcSt11char_traitsIcESaIcEEixEm@plt>
    406c:	0f b6 00             	movzx  eax,BYTE PTR [rax]
    406f:	3c 78                	cmp    al,0x78
    4071:	75 07                	jne    407a <_Z9ascii_artNSt7__cxx1112basic_stringIcSt11char_traitsIcESaIcEEE+0x2d91>
    4073:	b8 01 00 00 00       	mov    eax,0x1
    4078:	eb 05                	jmp    407f <_Z9ascii_artNSt7__cxx1112basic_stringIcSt11char_traitsIcESaIcEEE+0x2d96>
    407a:	b8 00 00 00 00       	mov    eax,0x0
    407f:	84 c0                	test   al,al
    4081:	74 13                	je     4096 <_Z9ascii_artNSt7__cxx1112basic_stringIcSt11char_traitsIcESaIcEEE+0x2dad>
    4083:	48 8d 35 f3 52 00 00 	lea    rsi,[rip+0x52f3]        # 937d <_ZStL19piecewise_construct+0x375>
    408a:	48 8d 3d af 6f 00 00 	lea    rdi,[rip+0x6faf]        # b040 <_ZSt4cout@@GLIBCXX_3.4>
    4091:	e8 da d0 ff ff       	call   1170 <_ZStlsISt11char_traitsIcEERSt13basic_ostreamIcT_ES5_PKc@plt>
    4096:	8b 45 b0             	mov    eax,DWORD PTR [rbp-0x50]
    4099:	48 63 d0             	movsxd rdx,eax
    409c:	48 8d 45 c0          	lea    rax,[rbp-0x40]
    40a0:	48 89 d6             	mov    rsi,rdx
    40a3:	48 89 c7             	mov    rdi,rax
    40a6:	e8 45 d1 ff ff       	call   11f0 <_ZNSt7__cxx1112basic_stringIcSt11char_traitsIcESaIcEEixEm@plt>
    40ab:	0f b6 00             	movzx  eax,BYTE PTR [rax]
    40ae:	3c 59                	cmp    al,0x59
    40b0:	74 1c                	je     40ce <_Z9ascii_artNSt7__cxx1112basic_stringIcSt11char_traitsIcESaIcEEE+0x2de5>
    40b2:	8b 45 b0             	mov    eax,DWORD PTR [rbp-0x50]
    40b5:	48 63 d0             	movsxd rdx,eax
    40b8:	48 8d 45 c0          	lea    rax,[rbp-0x40]
    40bc:	48 89 d6             	mov    rsi,rdx
    40bf:	48 89 c7             	mov    rdi,rax
    40c2:	e8 29 d1 ff ff       	call   11f0 <_ZNSt7__cxx1112basic_stringIcSt11char_traitsIcESaIcEEixEm@plt>
    40c7:	0f b6 00             	movzx  eax,BYTE PTR [rax]
    40ca:	3c 79                	cmp    al,0x79
    40cc:	75 07                	jne    40d5 <_Z9ascii_artNSt7__cxx1112basic_stringIcSt11char_traitsIcESaIcEEE+0x2dec>
    40ce:	b8 01 00 00 00       	mov    eax,0x1
    40d3:	eb 05                	jmp    40da <_Z9ascii_artNSt7__cxx1112basic_stringIcSt11char_traitsIcESaIcEEE+0x2df1>
    40d5:	b8 00 00 00 00       	mov    eax,0x0
    40da:	84 c0                	test   al,al
    40dc:	74 13                	je     40f1 <_Z9ascii_artNSt7__cxx1112basic_stringIcSt11char_traitsIcESaIcEEE+0x2e08>
    40de:	48 8d 35 98 52 00 00 	lea    rsi,[rip+0x5298]        # 937d <_ZStL19piecewise_construct+0x375>
    40e5:	48 8d 3d 54 6f 00 00 	lea    rdi,[rip+0x6f54]        # b040 <_ZSt4cout@@GLIBCXX_3.4>
    40ec:	e8 7f d0 ff ff       	call   1170 <_ZStlsISt11char_traitsIcEERSt13basic_ostreamIcT_ES5_PKc@plt>
    40f1:	8b 45 b0             	mov    eax,DWORD PTR [rbp-0x50]
    40f4:	48 63 d0             	movsxd rdx,eax
    40f7:	48 8d 45 c0          	lea    rax,[rbp-0x40]
    40fb:	48 89 d6             	mov    rsi,rdx
    40fe:	48 89 c7             	mov    rdi,rax
    4101:	e8 ea d0 ff ff       	call   11f0 <_ZNSt7__cxx1112basic_stringIcSt11char_traitsIcESaIcEEixEm@plt>
    4106:	0f b6 00             	movzx  eax,BYTE PTR [rax]
    4109:	3c 5a                	cmp    al,0x5a
    410b:	74 1c                	je     4129 <_Z9ascii_artNSt7__cxx1112basic_stringIcSt11char_traitsIcESaIcEEE+0x2e40>
    410d:	8b 45 b0             	mov    eax,DWORD PTR [rbp-0x50]
    4110:	48 63 d0             	movsxd rdx,eax
    4113:	48 8d 45 c0          	lea    rax,[rbp-0x40]
    4117:	48 89 d6             	mov    rsi,rdx
    411a:	48 89 c7             	mov    rdi,rax
    411d:	e8 ce d0 ff ff       	call   11f0 <_ZNSt7__cxx1112basic_stringIcSt11char_traitsIcESaIcEEixEm@plt>
    4122:	0f b6 00             	movzx  eax,BYTE PTR [rax]
    4125:	3c 7a                	cmp    al,0x7a
    4127:	75 07                	jne    4130 <_Z9ascii_artNSt7__cxx1112basic_stringIcSt11char_traitsIcESaIcEEE+0x2e47>
    4129:	b8 01 00 00 00       	mov    eax,0x1
    412e:	eb 05                	jmp    4135 <_Z9ascii_artNSt7__cxx1112basic_stringIcSt11char_traitsIcESaIcEEE+0x2e4c>
    4130:	b8 00 00 00 00       	mov    eax,0x0
    4135:	84 c0                	test   al,al
    4137:	74 13                	je     414c <_Z9ascii_artNSt7__cxx1112basic_stringIcSt11char_traitsIcESaIcEEE+0x2e63>
    4139:	48 8d 35 46 52 00 00 	lea    rsi,[rip+0x5246]        # 9386 <_ZStL19piecewise_construct+0x37e>
    4140:	48 8d 3d f9 6e 00 00 	lea    rdi,[rip+0x6ef9]        # b040 <_ZSt4cout@@GLIBCXX_3.4>
    4147:	e8 24 d0 ff ff       	call   1170 <_ZStlsISt11char_traitsIcEERSt13basic_ostreamIcT_ES5_PKc@plt>
    414c:	8b 45 b0             	mov    eax,DWORD PTR [rbp-0x50]
    414f:	48 63 d0             	movsxd rdx,eax
    4152:	48 8d 45 c0          	lea    rax,[rbp-0x40]
    4156:	48 89 d6             	mov    rsi,rdx
    4159:	48 89 c7             	mov    rdi,rax
    415c:	e8 8f d0 ff ff       	call   11f0 <_ZNSt7__cxx1112basic_stringIcSt11char_traitsIcESaIcEEixEm@plt>
    4161:	0f b6 00             	movzx  eax,BYTE PTR [rax]
    4164:	3c 20                	cmp    al,0x20
    4166:	0f 94 c0             	sete   al
    4169:	84 c0                	test   al,al
    416b:	74 13                	je     4180 <_Z9ascii_artNSt7__cxx1112basic_stringIcSt11char_traitsIcESaIcEEE+0x2e97>
    416d:	48 8d 35 6f 4f 00 00 	lea    rsi,[rip+0x4f6f]        # 90e3 <_ZStL19piecewise_construct+0xdb>
    4174:	48 8d 3d c5 6e 00 00 	lea    rdi,[rip+0x6ec5]        # b040 <_ZSt4cout@@GLIBCXX_3.4>
    417b:	e8 f0 cf ff ff       	call   1170 <_ZStlsISt11char_traitsIcEERSt13basic_ostreamIcT_ES5_PKc@plt>
    4180:	8b 45 b0             	mov    eax,DWORD PTR [rbp-0x50]
    4183:	48 63 d0             	movsxd rdx,eax
    4186:	48 8d 45 c0          	lea    rax,[rbp-0x40]
    418a:	48 89 d6             	mov    rsi,rdx
    418d:	48 89 c7             	mov    rdi,rax
    4190:	e8 5b d0 ff ff       	call   11f0 <_ZNSt7__cxx1112basic_stringIcSt11char_traitsIcESaIcEEixEm@plt>
    4195:	0f b6 00             	movzx  eax,BYTE PTR [rax]
    4198:	3c 60                	cmp    al,0x60
    419a:	0f 94 c0             	sete   al
    419d:	84 c0                	test   al,al
    419f:	74 13                	je     41b4 <_Z9ascii_artNSt7__cxx1112basic_stringIcSt11char_traitsIcESaIcEEE+0x2ecb>
    41a1:	48 8d 35 e7 51 00 00 	lea    rsi,[rip+0x51e7]        # 938f <_ZStL19piecewise_construct+0x387>
    41a8:	48 8d 3d 91 6e 00 00 	lea    rdi,[rip+0x6e91]        # b040 <_ZSt4cout@@GLIBCXX_3.4>
    41af:	e8 bc cf ff ff       	call   1170 <_ZStlsISt11char_traitsIcEERSt13basic_ostreamIcT_ES5_PKc@plt>
    41b4:	8b 45 b0             	mov    eax,DWORD PTR [rbp-0x50]
    41b7:	48 63 d0             	movsxd rdx,eax
    41ba:	48 8d 45 c0          	lea    rax,[rbp-0x40]
    41be:	48 89 d6             	mov    rsi,rdx
    41c1:	48 89 c7             	mov    rdi,rax
    41c4:	e8 27 d0 ff ff       	call   11f0 <_ZNSt7__cxx1112basic_stringIcSt11char_traitsIcESaIcEEixEm@plt>
    41c9:	0f b6 00             	movzx  eax,BYTE PTR [rax]
    41cc:	3c 7e                	cmp    al,0x7e
    41ce:	0f 94 c0             	sete   al
    41d1:	84 c0                	test   al,al
    41d3:	74 13                	je     41e8 <_Z9ascii_artNSt7__cxx1112basic_stringIcSt11char_traitsIcESaIcEEE+0x2eff>
    41d5:	48 8d 35 b8 51 00 00 	lea    rsi,[rip+0x51b8]        # 9394 <_ZStL19piecewise_construct+0x38c>
    41dc:	48 8d 3d 5d 6e 00 00 	lea    rdi,[rip+0x6e5d]        # b040 <_ZSt4cout@@GLIBCXX_3.4>
    41e3:	e8 88 cf ff ff       	call   1170 <_ZStlsISt11char_traitsIcEERSt13basic_ostreamIcT_ES5_PKc@plt>
    41e8:	8b 45 b0             	mov    eax,DWORD PTR [rbp-0x50]
    41eb:	48 63 d0             	movsxd rdx,eax
    41ee:	48 8d 45 c0          	lea    rax,[rbp-0x40]
    41f2:	48 89 d6             	mov    rsi,rdx
    41f5:	48 89 c7             	mov    rdi,rax
    41f8:	e8 f3 cf ff ff       	call   11f0 <_ZNSt7__cxx1112basic_stringIcSt11char_traitsIcESaIcEEixEm@plt>
    41fd:	0f b6 00             	movzx  eax,BYTE PTR [rax]
    4200:	3c 31                	cmp    al,0x31
    4202:	0f 94 c0             	sete   al
    4205:	84 c0                	test   al,al
    4207:	74 13                	je     421c <_Z9ascii_artNSt7__cxx1112basic_stringIcSt11char_traitsIcESaIcEEE+0x2f33>
    4209:	48 8d 35 8b 51 00 00 	lea    rsi,[rip+0x518b]        # 939b <_ZStL19piecewise_construct+0x393>
